
.\.pioenvs\teensy31\firmware.elf:     file format elf32-littlearm

Contents of section .text:
 0000 00800020 bd010000 310b0000 e90a0000  ... ....1.......
 0010 e90a0000 e90a0000 e90a0000 e90a0000  ................
 0020 e90a0000 e90a0000 e90a0000 310b0000  ............1...
 0030 310b0000 e90a0000 7d220000 b9240000  1.......}"...$..
 0040 310b0000 310b0000 310b0000 310b0000  1...1...1...1...
 0050 310b0000 310b0000 310b0000 310b0000  1...1...1...1...
 0060 310b0000 310b0000 310b0000 310b0000  1...1...1...1...
 0070 310b0000 310b0000 310b0000 310b0000  1...1...1...1...
 0080 310b0000 310b0000 310b0000 310b0000  1...1...1...1...
 0090 310b0000 310b0000 310b0000 310b0000  1...1...1...1...
 00a0 310b0000 310b0000 310b0000 310b0000  1...1...1...1...
 00b0 310b0000 310b0000 310b0000 310b0000  1...1...1...1...
 00c0 310b0000 310b0000 310b0000 310b0000  1...1...1...1...
 00d0 310b0000 310b0000 310b0000 310b0000  1...1...1...1...
 00e0 310b0000 310b0000 310b0000 310b0000  1...1...1...1...
 00f0 310b0000 d5250000 310b0000 01270000  1....%..1....'..
 0100 310b0000 2d280000 310b0000 310b0000  1...-(..1...1...
 0110 310b0000 310b0000 310b0000 310b0000  1...1...1...1...
 0120 310b0000 310b0000 310b0000 310b0000  1...1...1...1...
 0130 310b0000 310b0000 310b0000 310b0000  1...1...1...1...
 0140 310b0000 310b0000 310b0000 310b0000  1...1...1...1...
 0150 310b0000 310b0000 310b0000 310b0000  1...1...1...1...
 0160 310b0000 99110000 310b0000 310b0000  1.......1...1...
 0170 310b0000 310b0000 310b0000 310b0000  1...1...1...1...
 0180 310b0000 310b0000 310b0000 310b0000  1...1...1...1...
 0190 310b0000 310b0000 310b0000 310b0000  1...1...1...1...
 01a0 310b0000 310b0000 310b0000 310b0000  1...1...1...1...
 01b0 310b0000 310b0000 310b0000 564b4cf2  1...1...1...VKL.
 01c0 205210b5 1a804df6 28121a80 00bf00bf   R....M.(.......
 01d0 00f0b2fc 514b4ff0 10621a60 504a9a60  ....QKO..b.`PJ.`
 01e0 504ada60 504a1368 13f48073 04d14f49  PJ.`PJ.h...s..OI
 01f0 0b604ff4 a8531360 4d4b1a78 110703d5  .`O..S.`MK.x....
 0200 1a7842f0 08021a70 4a4b4b49 2a221a70  .xB....pJKKI*".p
 0210 4a4a4b4b 8b4204d2 52f8040f 43f8040b  JJKK.B..R...C...
 0220 f8e7484b 48490022 8b4202d2 43f8042b  ..HKHI.".B..C..+
 0230 fae74649 464a0023 52f82300 41f82300  ..FIFJ.#R.#.A.#.
 0240 01336f2b f8d1434b 434a8021 03f8011b  .3o+..CKCJ.!....
 0250 9342fbd1 414b3d4a 1a60414b 8a221a70  .B..AK=J.`AK.".p
 0260 a3f58053 24225a70 a0221a70 9a799207  ...S$"Zp.".p.y..
 0270 fcd59a79 d406fcd4 3a4a9379 03f00c03  ...y....:J.y....
 0280 082b384b f9d10322 1a714622 5a719a79  .+8K...".qF"Zq.y
 0290 9006fcd5 334a9179 324b4906 fbd5324a  ....3J.y2KI...2J
 02a0 4ff08271 11600921 51602022 1a709a79  O..q.`.!Q` ".p.y
 02b0 02f00c02 0c2afad1 2c4b2d4a 1a602d4b  .....*..,K-J.`-K
 02c0 2d4a1a60 00225a60 072243f8 042c2b4a  -J.`."Z`."C..,+J
 02d0 c3f80c2d 62b600f0 07fd144b 1b68da07  ...-b......K.h..
 02e0 05d52748 00f0eefc 264b274a 1a60274b  ..'H....&K'J.`'K
 02f0 1b785b06 09d5234c 234b2268 9a4204d1  .x[...#L#K"h.B..
 0300 1f4800f0 dffc0023 236002f0 dbfd00f0  .H.....##`......
 0310 19fc00f0 11fbfee7 0e200540 30800440  ......... .@0..@
 0320 823f0400 0100002b 10d00340 14d00340  .?.....+...@...@
 0330 02d00740 00e00740 dc91ff1f 0c3a0000  ...@...@.....:..
 0340 2087ff1f dc91ff1f 0c98ff1f 0082ff1f   ...............
 0350 00000000 00e400e0 5fe400e0 08ed00e0  ........_.......
 0360 00500640 00400640 44800440 04800440  .P.@.@.@D..@...@
 0370 c0100500 14e000e0 bfd40100 00002020  ..............  
 0380 6e009c5a 1ce00340 a5c3945a 00f00740  n..Z...@...Z...@
 0390 ffffffff ffffffff ffffffff ffffffff  ................
 03a0 ffffffff ffffffff ffffffff ffffffff  ................
 03b0 ffffffff ffffffff ffffffff ffffffff  ................
 03c0 ffffffff ffffffff ffffffff ffffffff  ................
 03d0 ffffffff ffffffff ffffffff ffffffff  ................
 03e0 ffffffff ffffffff ffffffff ffffffff  ................
 03f0 ffffffff ffffffff ffffffff ffffffff  ................
 0400 ffffffff ffffffff ffffffff def9ffff  ................
 0410 10b5054c 237833b9 044b13b1 0448aff3  ...L#x3..K...H..
 0420 00800123 237010bd dc91ff1f 00000000  ...##p..........
 0430 083a0000 084b10b5 1bb10849 0848aff3  .:...K.....I.H..
 0440 00800848 036803b9 10bd074b 002bfbd0  ...H.h.....K.+..
 0450 bde81040 184700bf 00000000 e091ff1f  ...@.G..........
 0460 083a0000 dc91ff1f 00000000 c0f8c010  .:..............
 0470 704700bf 90f90030 084a90f9 0100013b  pG.....0.J.....;
 0480 82fb0321 da17c2eb a10202eb 8202a3eb  ...!............
 0490 42035bb2 c01a18bf 01207047 67666666  B.[...... pGgfff
 04a0 38b50446 244d2548 0e2101f0 fdfcd4f8  8..F$M%H.!......
 04b0 c0102846 00f07cfa 94f8c000 002100f0  ..(F..|......!..
 04c0 07fd0023 00220121 21706370 e3606360  ...#.".!!pcp.`c`
 04d0 a360e361 6361a361 e3626362 a362e363  .`.aca.a.bcb.b.c
 04e0 6363a363 e3646364 a364e365 6365a365  cc.c.dcd.d.ece.e
 04f0 e3666366 a366e367 6367a367 c4f88c30  .fcf.f.gcg.g...0
 0500 c4f88430 c4f8a420 c4f8a820 c4f8ac20  ...0... ... ... 
 0510 c4f8b020 0921c4f8 88300948 c4f89c30  ... .!...0.H...0
 0520 c4f89430 c4f89830 01f0befc 2846bde8  ...0...0....(F..
 0530 384000f0 b7ba00bf e488ff1f 18380000  8@...........8..
 0540 28380000 704700bf 90f8c000 704700bf  (8..pG......pG..
 0550 03780b4a 01335bb2 10b482fb 0324da17  .x.J.3[......$..
 0560 c2eba402 02eb8202 a3eb4203 5bb200eb  ..........B.[...
 0570 03120024 03701474 516010bc 704700bf  ...$.p.tQ`..pG..
 0580 67666666 90f90020 00eb0210 00238160  gfff... .....#.`
 0590 03747047 f0b490f9 0130214c 00eb0311  .tpG.....0!L....
 05a0 0d468a68 49680133 521a5bb2 ea6084fb  .F.hIh.3R.[..`..
 05b0 0317d917 90f90060 c1eba701 01eb8101  .......`........
 05c0 a2f6b837 783ab2f5 437f00eb 0616a3eb  ...7x:..C.......
 05d0 410341f2 70718cbf 00220122 8f42b274  A.A.pq...".".B.t
 05e0 8cbf0021 01215bb2 01270022 71742f74  ...!.![..'."qt/t
 05f0 ea744370 73b1013b 84fb0324 da17c2eb  .tCps..;...$....
 0600 a40404eb 8404a3eb 440400eb 04100430  ........D......0
 0610 f0bc7047 092400eb 04100430 f0bc7047  ..pG.$.....0..pG
 0620 67666666 70b590f9 004000eb 0414257c  gfffp....@....%|
 0630 ddb1a57c cdb1e57c bdb902eb 41021e46  ...|...|....A..F
 0640 01232832 e3740546 606805eb 820402f0  .#(2.t.F`h......
 0650 85fa0546 304602f0 81fa0449 02f0d6fa  ...F0F.....I....
 0660 01462846 02f0c8f9 606070bd 2a231e37  .F(F....``p.*#.7
 0670 f0b4084a 084e1368 084c0949 4ff0ff37  ...J.N.h.L.IO..7
 0680 002543f4 00030120 13603760 25600860  .%C.... .`7`%`.`
 0690 f0bc7047 3c800440 00710340 00700340  ..pG<..@.q.@.p.@
 06a0 08710340 064a074b 11681b68 06481b07  .q.@.J.K.h.h.H..
 06b0 6fea0101 01d5fff7 4bbffff7 63bf00bf  o.......K...c...
 06c0 04710340 90f00f40 0092ff1f 064a074b  .q.@...@.....J.K
 06d0 11681b68 0648db06 6fea0101 01d5fff7  .h.h.H..o.......
 06e0 37bffff7 4fbf00bf 04710340 90f00f40  7...O....q.@...@
 06f0 c492ff1f 064a074b 11681b68 06485b06  .....J.K.h.h.H[.
 0700 6fea0101 01d5fff7 23bffff7 3bbf00bf  o.......#...;...
 0710 04710340 90f00f40 8893ff1f 064a074b  .q.@...@.....J.K
 0720 11681b68 06481b06 6fea0101 01d5fff7  .h.h.H..o.......
 0730 0fbffff7 27bf00bf 04710340 90f00f40  ....'....q.@...@
 0740 4c94ff1f 10b5094c 04f51370 fff7fafe  L......L...p....
 0750 04f5c470 fff7f6fe 04f1c400 fff7f2fe  ...p............
 0760 2046bde8 1040fff7 edbe00bf 0092ff1f   F...@..........
 0770 10b5164c 16481221 01f096fb 2046fff7  ...L.H.!.... F..
 0780 e3fe0422 134900f0 1dfa04f1 c400fff7  ...".I..........
 0790 dbfe0422 104900f0 15fa04f5 c470fff7  ...".I.......p..
 07a0 d3fe0422 0d4900f0 0dfa04f5 1370fff7  ...".I.......p..
 07b0 cbfe0422 0a4900f0 05fa0821 094801f0  ...".I.....!.H..
 07c0 73fb0948 bde81040 00f06cb9 0092ff1f  s..H...@..l.....
 07d0 34380000 a5060000 cd060000 f5060000  48..............
 07e0 1d070000 48380000 e488ff1f 10b50121  ....H8.........!
 07f0 104c0d20 00f06cfb 4ff4fa60 00f0a4fb  .L. ..l.O..`....
 0800 2046fff7 4dfe04f1 c400fff7 49fe04f5   F..M.......I...
 0810 c470fff7 45fe04f5 1370fff7 41fe6420  .p..E....p..A.d 
 0820 00f092fb fff724ff fff7a2ff 024b2022  ......$......K "
 0830 1a6010bd 0092ff1f 84f00f40 364b2de9  .`.........@6K-.
 0840 f047364c 1f684ff0 0009ff43 04f54476  .G6L.hO....C..Dv
 0850 2546c846 4ff0010a 2846fff7 0bfe38bb  %F.FO...(F....8.
 0860 c435ae42 f8d1b8f1 000f07d0 2c48d8f8  .5.B........,H..
 0870 00300168 591ab1f5 167f28d8 dff8b480  .0.hY.....(.....
 0880 284f294d 98f80010 3a782b68 2046c434  (O)M....:x+h F.4
 0890 fff7c8fe a64209d0 204698f8 00103a78  .....B.. F....:x
 08a0 2b68c434 fff7befe a642f5d1 bde8f087  +h.4.....B......
 08b0 2846fff7 6ffe437b 002bd1d0 036880f8  (F..o.C{.+...h..
 08c0 0fa0fb1a 4b4584bf 99468046 c8e7d8f8  ....KE...F.F....
 08d0 0820164d 036002eb 42021201 a5fb0202  . .M.`..B.......
 08e0 52091348 a2f6c512 a0fb0202 52095007  R..H........R.P.
 08f0 c4d4a1f5 b6416839 b1f5966f dff83480  .....Ah9...o..4.
 0900 084f094d 8cbf0021 012102f0 010288f8  .O.M...!.!......
 0910 00103a70 2b60b9e7 04710340 0092ff1f  ..:p+`...q.@....
 0920 1095ff1f f891ff1f fc91ff1f 89888888  ................
 0930 d34d6210 f991ff1f 08b5fff7 57fffff7  .Mb.........W...
 0940 7dfffce7 10b50d4c 09212046 fff78efd  }......L.! F....
 0950 04f1c400 0a21fff7 89fd04f5 c4700b21  .....!.......p.!
 0960 fff784fd 04f51370 0c21fff7 7ffd044a  .......p.!.....J
 0970 04490020 bde81040 02f034b8 0092ff1f  .I. ...@..4.....
 0980 fc87ff1f 45070000 f8b572b1 06460f46  ....E.....r..F.F
 0990 14460025 336817f8 011b1b68 30469847  .F.%3h.....h0F.G
 09a0 013c0544 f6d12846 f8bd1546 fbe700bf  .<.D..(F...F....
 09b0 f0b50029 8bb00446 1bdb5ad1 30238df8  ...)...F..Z.0#..
 09c0 25302368 354a5f68 97424ad1 00250df1  %0#h5J_h.BJ..%..
 09d0 25010e46 0d440027 01e02368 01361b68  %..F.D.'..#h.6.h
 09e0 31782046 9847b542 0744f6d1 38460bb0  1x F.G.B.D..8F..
 09f0 f0bd2b4b 4942a3fb 0123db08 03eb8302  ..+KIB...#......
 0a00 a1eb4201 30318df8 2510002b 44d02d26  ..B.01..%..+D.-&
 0a10 234d2122 a5fb0301 c90801eb 8100013a  #M!"...........:
 0a20 a3eb4003 d2b20aa8 10443033 00f8243c  ..@......D03..$<
 0a30 0b460029 eed15eb3 551eedb2 0aab2b44  .F.)..^.U.....+D
 0a40 2d2203f8 242cc5f1 22002368 134a5f68  -"..$,..".#h.J_h
 0a50 01a99742 294407d1 c5f12105 0028b8d1  ...B)D....!..(..
 0a60 c5e70120 0df12501 02462046 b8470bb0  ... ..%..F F.G..
 0a70 f0bd0b4b a3fb0123 db0803eb 8302a1eb  ...K...#........
 0a80 42023032 8df82520 002b9ad0 0026bfe7  B.02..% .+...&..
 0a90 1546c2f1 2200d8e7 2122cde7 89090000  .F.."...!"......
 0aa0 cdcccccc 30b50368 0d490e4a 5c680988  ....0..h.I.J\h..
 0ab0 83b09442 adf80410 0dd10546 1b680d21  ...B.......F.h.!
 0ac0 98472b68 9df80510 1b680446 28469847  .G+h.....h.F(F.G
 0ad0 204403b0 30bd01a9 0222a047 03b030bd   D..0....".G..0.
 0ae0 54380000 89090000 08b5104c 08e02368  T8.........L..#h
 0af0 59050dd4 23681a05 0fd42368 db0411d4  Y...#h....#h....
 0b00 23685803 f3d500f0 47fb2368 5905f1d5  #hX.....G.#hY...
 0b10 01f060fd 23681a05 efd501f0 f1fd2368  ..`.#h........#h
 0b20 db04edd5 01f082fe eae700bf 34800440  ............4..@
 0b30 08b5fff7 d9ff00bf 014b1022 1a807047  .........K."..pG
 0b40 00200540 704700bf 094908b5 0b6830b1  . .@pG...I...h0.
 0b50 6a461844 a2f58052 904202d2 08601846  jF.D...R.B...`.F
 0b60 08bd02f0 a9f90c23 03604ff0 ff3008bd  .......#.`O..0..
 0b70 0088ff1f f0b44d1e 2e460024 00e00134  ......M..F.$...4
 0b80 b0fbf2f3 02fb1300 092800f1 30078abf  .........(..0...
 0b90 3730f8b2 c0b206f8 010f1846 002beed1  70.........F.+..
 0ba0 0a195370 4cb11078 15f8016f 28700133  ..SpL..x...o(p.3
 0bb0 e01a8342 02f80169 f5db0846 f0bc7047  ...B...i...F..pG
 0bc0 704700bf 2128f0b4 15d8042a 13d8dfe8  pG..!(.....*....
 0bd0 02f0494c 4f144600 2e4e72b6 1a6822f4  ..ILO.F..Nr..h".
 0be0 702242f0 8070c3f3 84042843 1a6046f8  p"B..p....(C.`F.
 0bf0 24101860 62b6f0bc 70474ff4 1025264c  $..`b...pGO..%&L
 0c00 04ebc003 5b681a68 12f4e062 35d0234a  ....[h.h...b5.#J
 0c10 234c2448 c2f89c41 03f14044 224ec2f8  #L$H...A..@D"N..
 0c20 a401a4f5 9220214f c2f8a061 7c28204e  ..... !O...a|( N
 0c30 c2f8a871 c2f8ac61 ced9a4f5 94227c2a  ...q...a....."|*
 0c40 19d9a4f5 96227c2a 1fd9a4f5 98227c2a  ....."|*....."|*
 0c50 1dd9a4f5 9a247c2c cdd8164e bde74ff4  .....$|,...N..O.
 0c60 3025cce7 4ff40025 c9e74ff4 4025c6e7  0%..O..%..O.@%..
 0c70 4ff42025 c3e7104e afe754f8 30404ff4  O. %...N..T.0@O.
 0c80 807084f8 80221860 c1e70c4e a5e70c4e  .p...".`...N...N
 0c90 a3e700bf 0488ff1f 58380000 0082ff1f  ........X8......
 0ca0 d187ff1f 7987ff1f a587ff1f 4d87ff1f  ....y.......M...
 0cb0 2187ff1f dc88ff1f 3c88ff1f 8c88ff1f  !.......<.......
 0cc0 bc88ff1f 30b4054b 054d064c 00221021  ....0..K.M.L.".!
 0cd0 1a602a60 20601960 30bc7047 14d00340  .`*` `.`0.pG...@
 0ce0 04d00340 00d00340 2de9f843 6a4b6b49  ...@...@-..CjKkI
 0cf0 6b4e6c4d 6c4cdff8 d0c1dff8 d0e16b4a  kNlMlL........kJ
 0d00 6b4f4ff4 00001860 4ff08070 18604ff0  kOO....`O..p.`O.
 0d10 00701860 4ff08060 18604ff0 00601860  .p.`O..`.`O..`.`
 0d20 00200860 28234ef6 ff71ccf8 0010cef8  . .`(#N..q......
 0d30 00303360 13602b60 23603b60 b3629362  .03`.`+`#`;`.b.b
 0d40 092245f8 242cc4f8 d80f05f5 7f65c7f8  ."E.$,.......e..
 0d50 d41f07f5 ff2707f5 fa67c6f8 f83f2b60  .....'...g...?+`
 0d60 06f5ff26 c4f8d42f 05f5fd25 04f5ff24  ...&.../...%...$
 0d70 386006f2 f4764f48 316005f5 ff6504f5  8`...vOH1`...e..
 0d80 fd642b60 23600260 01f0a4fb 72b64a4d  .d+`#`.`....r.JM
 0d90 4a4b4b4a 1b682c68 126862b6 510102d5  JKKJ.h,h.hb.Q...
 0da0 322b88bf 0134c3f5 ea33464f dff80c91  2+...4...3FO....
 0db0 dff80c81 bf334ff4 7a72a7fb 031302fb  .....3O.zr......
 0dc0 04f404eb 93143226 72b6d9f8 00102a68  ......2&r.....*h
 0dd0 d8f800e0 62b6c1f5 ea33bf33 a7fb0303  ....b....3.3....
 0de0 1ef0806f c4eb9313 4ff47a70 02d03229  ...o....O.zp..2)
 0df0 88bf0132 00fb0233 b3f57a7f 04d3013e  ...2...3..z....>
 0e00 05d004f5 7a74dfe7 01f0a2f9 dce700f0  ....zt..........
 0e10 1dff72b6 294b2a4a 1b682c68 126862b6  ..r.)K*J.h,h.hb.
 0e20 520102d5 322b88bf 0134c3f5 ea33254f  R...2+...4...3%O
 0e30 dff88890 dff88880 bf334ff4 7a72a7fb  .........3O.zr..
 0e40 031302fb 04f404eb 93144ff4 af7672b6  ..........O..vr.
 0e50 d9f80010 2a68d8f8 00e062b6 c1f5ea33  ....*h....b....3
 0e60 bf33a7fb 03031ef0 806fc4eb 93134ff4  .3.......o....O.
 0e70 7a7002d0 322988bf 013200fb 0233b3f5  zp..2)...2...3..
 0e80 7a7f04d3 013e05d0 04f57a74 dfe701f0  z....>....zt....
 0e90 5ff9dce7 bde8f883 08e100e0 04800340  _..............@
 0ea0 14800340 24800340 2c800340 1c800340  ...@$..@,..@...@
 0eb0 34800340 00800b40 1495ff1f 18e000e0  4..@...@........
 0ec0 04ed00e0 89888888 08800340 0c800340  ...........@...@
 0ed0 212820d8 1b4a02eb c0030129 5b680fd0  !( ..J.....)[h..
 0ee0 04291dd0 52f83000 002280f8 802299b1  .)..R.0.."..."..
 0ef0 022922d0 03290dd1 4ff48172 1a607047  .)"..)..O..r.`pG
 0f00 52f83000 4ff4a272 80f88012 1a601a68  R.0.O..r.....`.h
 0f10 22f02002 1a607047 4ff48072 1a607047  ". ..`pGO..r.`pG
 0f20 52f83010 4ff4a272 012081f8 80021a60  R.0.O..r. .....`
 0f30 1a6842f0 20021a60 704740f2 03121a60  .hB. ..`pG@....`
 0f40 704700bf 58380000 2de9f843 054672b6  pG..X8..-..C.Fr.
 0f50 204f214b 214a1b68 3c681268 62b65201   O!K!J.h<h.hb.R.
 0f60 02d5322b 88bf0134 95b3c3f5 ea331c4e  ..2+...4.....3.N
 0f70 dff86490 dff86480 bf334ff4 7a72a6fb  ..d...d..3O.zr..
 0f80 031302fb 04f404eb 931472b6 d9f80010  ..........r.....
 0f90 3a68d8f8 00e062b6 c1f5ea33 bf33a6fb  :h....b....3.3..
 0fa0 03031ef0 806fc4eb 93134ff4 7a7002d0  .....o....O.zp..
 0fb0 322988bf 013200fb 0233b3f5 7a7f04d3  2)...2...3..z...
 0fc0 013d05d0 04f57a74 dfe701f0 c1f8dce7  .=....zt........
 0fd0 bde8f883 1495ff1f 18e000e0 04ed00e0  ................
 0fe0 89888888 431e032b 14d872b6 0a4951f8  ....C..+..r..IQ.
 0ff0 230068b1 70b4094c 058834f8 13204668  #.h.p..L..4.. Fh
 1000 41f82360 521b24f8 132062b6 70bc7047  A.#`R.$.. b.p.pG
 1010 62b67047 00207047 7095ff1f f497ff1f  b.pG. pGp.......
 1020 01380328 0bd872b6 074b53f8 203043b1  .8.(..r..KS. 0C.
 1030 00205b68 0130002b fbd162b6 70470020  . [h.0.+..b.pG. 
 1040 70471846 f9e700bf c495ff1f 30b472b6  pG.F........0.r.
 1050 2b4a1378 1d0706d5 2a4b196a 002936d0  +J.x....*K.j.)6.
 1060 996a0029 41d05378 1c0706d5 254b196c  .j.)A.Sx....%K.l
 1070 00293ed0 996c0029 39d09378 190705d5  .)>..l.)9..x....
 1080 204b196e 002936d0 996e89b1 d3781b07   K.n.)6..n...x..
 1090 07d51c4b d3f88020 7ab3d3f8 88201121  ...K... z.... .!
 10a0 3ab162b6 184b0022 1a7030bc 00f070be  :.b..K.".p0...p.
 10b0 0d21154c 154d2278 43f83150 03ebc103  .!.L.M"xC.1P....
 10c0 0830013a 58602270 62b630bc 70470422  .0.:X`"pb.0.pG."
 10d0 0d4c0f4d 217843f8 325003eb c2030830  .L.M!xC.2P.....0
 10e0 4a1e5860 227062b6 efe70521 e1e70921  J.X`"pb....!...!
 10f0 dfe70822 ece70c22 eae71022 e8e700bf  ..."..."..."....
 1100 90390000 0080ff1f ed95ff1f c8004000  .9............@.
 1110 88004000 431e032b 1dd81b4a 400140f0  ..@.C..+...J@.@.
 1120 100030b4 104472b6 184ce25c 032a1bd8  ..0..Dr..L.\.*..
 1130 dfe802f0 02121517 03220d88 e25410f0  ........."...T..
 1140 080f14bf c8238823 43ea0543 08310360  .....#.#C..C.1.`
 1150 416062b6 30bc7047 08300222 ede70522  A`b.0.pG.0."..."
 1160 ebe70830 0422e8e7 094a52f8 230038b1  ...0."...JR.#.8.
 1170 084a52f8 23004160 42f82310 62b6e9e7  .JR.#.A`B.#.b...
 1180 42f82310 034af7e7 0080ff1f fc95ff1f  B.#..J..........
 1190 c495ff1f d495ff1f 2de9f04f dff80cb3  ........-..O....
 11a0 dff80ca3 87b044e0 ab4f4fea 930807eb  ......D..OO.....
 11b0 c809013e d9f80420 03f00803 f6b2a2f1  ...>... ........
 11c0 080003f0 ff04002b 40f00281 57f83830  .......+@...W.80
 11d0 1b0c99b2 22f8081c 002b00f0 f0809f4b  ...."....+.....K
 11e0 22f8064c 42f8044c 53f82620 002a00f0  "..LB..LS.& .*..
 11f0 c5829b4d 55f82630 58609a4c 45f82600  ...MU.&0X`.LE.&.
 1200 34f81630 194424f8 161000f0 a1fd0028  4..0.D$........(
 1210 00f0ad82 944a954b 19f0080f 00f10800  .....J.K........
 1220 18bf1346 c9f80400 47f83830 08238bf8  ...F....G.80.#..
 1230 00309bf8 0040e4b2 61071ad5 8c4b1b78  .0...@..a....K.x
 1240 a3b18c49 0a7802f0 ff0322b1 013bdbb2  ...I.x...."..;..
 1250 0b7003b9 00be8849 0a7802f0 ff032ab1  .p.....I.x....*.
 1260 013bdbb2 0b70002b 00f05782 04238bf8  .;...p.+..W..#..
 1270 003004f0 080303f0 ff02002b 00f0cc80  .0.........+....
 1280 9af80030 dbb21e09 8ed19c08 dff8c891  ...0............
 1290 59f83420 09ebc401 c2f38302 013a4968  Y.4 .........:Ih
 12a0 0c2a00f2 8880dfe8 02f07c7c 86868686  .*........||....
 12b0 86864786 86860700 0868704d 4a68704f  ..G......hpMJhpO
 12c0 704e2860 81b240f2 8160674b 6a604ff0  pN(`..@..`gKj`O.
 12d0 010e0022 814249f8 34303a60 c9f81020  ...".BI.40:`... 
 12e0 c9f81820 86f800e0 5b4c00f2 e380b1f5  ... ....[L......
 12f0 d06f80f0 4683b1f5 817f00f0 fc8200f2  .o..F...........
 1300 8d828029 00f07783 822940f0 fa82a988  ...)..w..)@.....
 1310 01f07f01 042900f2 f4825b48 5b4c8900  .....)....[H[L..
 1320 08442270 62700278 930740f1 558484f8  .D"pbp.x..@.U...
 1330 00e04ff0 020e42e3 514f3a68 32b3544b  ..O...B.QO:h2.TK
 1340 504e5449 18883478 0d784028 864645f0  PNTI..4x.x@(.FE.
 1350 020828bf 4ff0400e 002c84f0 01043470  ..(.O.@..,....4p
 1360 ceeb0000 0cbf8824 c82409eb c80680b2  .......$.$......
 1370 85f00105 44ea0e44 72601880 49f83840  ....D..Dr`..I.8@
 1380 72440d70 002800f0 45813a60 3b4b1a88  rD.p.(..E.:`;K..
 1390 b2f5a06f 0fd10021 9a785970 3e4b1a70  ...o...!.xYp>K.p
 13a0 09e0364a 108842f2 21029042 00f03781  ..6J..B.!..B..7.
 13b0 2d4a49f8 3420394a 01231370 36e72a4a  -JI.4 9J.#.p6.*J
 13c0 2a4b19f0 080f18bf 134647f8 38302de7  *K.......FG.80-.
 13d0 00f0defc 324a3349 52f82630 002b00f0  ....2J3IR.&0.+..
 13e0 d1815868 8c5d42f8 260003f1 0802c9f8  ..Xh.]B.&.......
 13f0 0420032c 05d8dfe8 04f02c02 29260222  . .,......,.)&."
 1400 8a551a88 19f0080f 0cbf8823 c82343ea  .U.........#.#C.
 1410 024347f8 383009e7 e00700f1 81812106  .CG.80........!.
 1420 00f1f281 a20706d5 1f4a2049 13780220  .........J I.x. 
 1430 dbb21370 0870e306 02d51c4b 10221a70  ...p.p.....K.".p
 1440 07b0bde8 f08f0422 8a55dae7 05228a55  .......".U...".U
 1450 d7e70322 8a55d4e7 0080ff1f 7095ff1f  ...".U......p...
 1460 1c95ff1f f497ff1f c8004000 88004000  ..........@...@.
 1470 f895ff1f 8195ff1f 0096ff1f e495ff1f  ................
 1480 1895ff1f 8095ff1f c0200740 f095ff1f  ......... .@....
 1490 2c95ff1f ec95ff1f 98200740 94200740  ,........ .@. .@
 14a0 c495ff1f fc95ff1f 88200740 80200740  ......... .@. .@
 14b0 90200740 42f22100 814200f0 2a8100f2  . .@B.!..B..*...
 14c0 d880b1f5 086f00f0 7682b1f5 106f40f0  .....o..v....o@.
 14d0 1882226a b349a878 08701206 00f13783  .."j.I.x.p....7.
 14e0 d9f82820 b0491306 00f12c83 d9f83020  ..( .I....,...0 
 14f0 ad491506 00f1ff82 d9f83820 aa491406  .I........8 .I..
 1500 00f1f482 d9f84020 a7491006 00f14783  ......@ .I....G.
 1510 d9f84820 a4491206 00f13c83 d9f85020  ..H .I....<...P 
 1520 a1491306 00f13183 d9f85820 9e491506  .I....1...X .I..
 1530 00f12683 d9f86020 9b491406 00f11b83  ..&...` .I......
 1540 d9f86820 98491006 00f11083 d9f87020  ..h .I........p 
 1550 95491206 00f10583 d9f87820 92491306  .I........x .I..
 1560 00f1fa82 d9f88020 8f491506 00f12e83  ....... .I......
 1570 d9f88820 8c491406 00f12283 d9f89020  ... .I....".... 
 1580 89491006 00f11683 d9f89820 86491206  .I......... .I..
 1590 00f10a83 8548864a 86490190 8648874c  .....H.J.I...H.L
 15a0 874d0294 00230497 05968046 1c460f46  .M...#.....F.F.F
 15b0 16460395 306828b1 456800f0 e9fb2846  .F..0h(.Eh....(F
 15c0 002df9d1 00233360 039b3868 1a460023  .-...#3`..8h.F.#
 15d0 42f82430 28b14568 00f0dafb 2846002d  B.$0(.Eh....(F.-
 15e0 f9d10022 3a60019a 98f80030 11460022  ...":`.....0.F."
 15f0 41f8042b 029a0191 023b4ff0 000122f8  A..+.....;O...".
 1600 1410032b 00f22b81 dfe813f0 70012501  ...+..+.....p.%.
 1610 70012501 bef1400f 18bf0022 b5e6694a  p.%...@...."..iJ
 1620 0d784878 15705070 8d78c878 9570d070  .xHx.pPp.x.x.p.p
 1630 10680d79 15718628 4d798979 55719171  .h.y.q.(My.yUq.q
 1640 00f09b81 6049614e 0a783078 82f00105  ....`IaN.x0x....
 1650 002842f0 02020d70 0cbf8821 c82149f8  .(B....p...!.!I.
 1660 321009eb c20280f0 01000021 30705160  2..........!0pQ`
 1670 9ee642f2 21208142 40f0cb81 544b554c  ..B.! .B@...TKUL
 1680 5549a878 1d682560 cdf804e0 08700020  UI.x.h%`.....p. 
 1690 02908046 84460446 4b490d78 45f0020e  ...F.F.FKI.xE...
 16a0 09ebce03 0393019b 002b039b 5c600cbf  .........+..\`..
 16b0 8824c824 44ea0803 85f00104 49f83e30  .$.$D.......I.>0
 16c0 32700c70 dff8e0e0 404bdff8 fc800028  2p.p....@K.....(
 16d0 40f01e81 bcf1400f 1bd144f0 020c09eb  @.....@...D.....
 16e0 cc03029c dff8c0e0 5c60002a 40f02681  ........\`.*@.&.
 16f0 020442f0 88029df8 04304ef8 3c200444  ..B......0N.< .D
 1700 33700d70 23464028 03d10020 334a3b60  3p.p#F@(... 3J;`
 1710 1080334a 01231370 4de600f0 f5fca5e5  ..3J.#.pM.......
 1720 214b2f48 28491a61 4ff0020e 80f800e0  !K/H(I.aO.......
 1730 2c4f0a70 2c491960 99602c4e 2c4d2d4c  ,O.p,I.`.`,N,M-L
 1740 9a610d21 3970ff21 3170dff8 b8e02970  .a.!9p.!1p....)p
 1750 2270294d 294a8ef8 00109f27 012406f8  "p)M)J.....'.$..
 1760 047c5d60 0470da60 07b0bde8 f08f244a  .|]`.p.`......$J
 1770 47f83800 13780133 137057e5 43f82600  G.8..x.3.pW.C.&.
 1780 0f4d3ae5 8b5d032b 00f2f080 01a252f8  .M:..].+......R.
 1790 23f000bf 2d120000 2d120000 51180000  #...-...-...Q...
 17a0 4b180000 f895ff1f 0080ff1f d495ff1f  K...............
 17b0 7095ff1f c495ff1f fc95ff1f f497ff1f  p...............
 17c0 1c95ff1f fc97ff1f ec95ff1f 8095ff1f  ................
 17d0 1495ff1f 0498ff1f 1096ff1f 2c95ff1f  ............,...
 17e0 94200740 c0200740 88004000 88200740  . .@. .@..@.. .@
 17f0 80200740 98200740 3095ff1f 8495ff1f  . .@. .@0.......
 1800 ed95ff1f 8c200740 bd49be4b 80220d20  ..... .@.I.K.". 
 1810 08701a70 a2077ff5 0eae05e6 40f20232  .p.p........@..2
 1820 914240f0 ee80a988 01f07f01 042968d8  .B@..........)h.
 1830 6a88002a 65d1b248 cdf804e0 89000844  j..*e..H.......D
 1840 017841f0 02010170 21e70123 8b55ede4  .xA....p!..#.U..
 1850 00238b55 eae44ff0 010388f8 00300134  .#.U..O......0.4
 1860 042c06f1 040607f1 040708f1 01087ff4  .,..............
 1870 a1aea54c a54b2278 a54d049f 059e0021  ...L.K"x.M.....!
 1880 29701a70 130700f1 05816278 a149dff8  )p.p......bx.I..
 1890 90820a70 10074ff0 0001c9f8 3010c9f8  ...p..O.....0...
 18a0 381000f1 e1809c49 a2780a70 0021c9f8  8......I.x.p.!..
 18b0 5010c9f8 58101107 dff86482 00f10081  P...X.....d.....
 18c0 e2789649 964c0a70 00211207 c9f87010  .x.I.L.p.!....p.
 18d0 c9f87810 00f1b080 33780193 002183f0  ..x.....3x...!..
 18e0 0102c9f8 9010c9f8 9810d0e6 4ff00003  ............O...
 18f0 88f80030 b3e7a988 01f07f01 042940f2  ...0.........)@.
 1900 8d807f4a 0f231370 864a0123 137052e5  ...J.#.p.J.#.pR.
 1910 40287ff6 e2ae44f0 02040eeb c401029e  @(....D.........
 1920 4e60bab1 9df80410 7f4a1970 33464038  N`.......J.p3F@8
 1930 88f80050 40334ef8 3420e7e6 9df80430  ...P@3N.4 .....0
 1940 33700204 029b0d70 42f0c802 03444ef8  3p.....pB....DN.
 1950 3c20d8e6 9df80410 1970029b 734a88f8  < .......p..sJ..
 1960 00504038 40334ef8 3420cfe6 19f0080f  .P@8@3N.4 ......
 1970 0cbf0223 03238b55 58e46d4a 0f211170  ...#.#.UX.mJ.!.p
 1980 60e66c4a 5468002c bbd06888 b5f804e0  `.lJTh.,..h.....
 1990 03e00c32 5468002c b3d01388 8342f8d1  ...2Th.,.....B..
 19a0 53887345 f5d1000a 03280cbf 94f800e0  S.sE.....(......
 19b0 b2f808e0 03e0604a 604c1278 2270e888  ......`J`L.x"p..
 19c0 704580f0 31815e49 0d784028 844645f0  pE..1.^I.x@(.FE.
 19d0 020e28bf 4ff0400c 04eb0c03 09ebce02  ..(.O.@.........
 19e0 02930123 5460cceb 00004fea 0c480022  ...#T`....O..H."
 19f0 0193c824 5ee6514c 4ff0020e 22706270  ...$^.QLO..."pbp
 1a00 dde7b1f5 a06f7ff4 7caf0123 00220193  .....o..|..#."..
 1a10 3de642f2 21329142 f7d072e7 6a88002a  =.B.!2.B..r.j..*
 1a20 7ff46faf 3648cdf8 04e08900 08440178  ..o.6H.......D.x
 1a30 21f00201 01702ae6 00f08af9 002800f0  !....p*......(..
 1a40 e6800830 c4f88400 3848c9f8 800000f0  ...0....8H......
 1a50 7ff9334a 002800f0 d4800830 3249c2f8  ..3J.(.....02I..
 1a60 8c00c2f8 881037e7 00f072f9 002800f0  ......7...r..(..
 1a70 bb800830 c8f84400 2c48c9f8 400000f0  ...0..D.,H..@...
 1a80 67f9274a 002800f0 aa800830 2649d064  g.'J.(.....0&I.d
 1a90 916408e7 00f05cf9 002800f0 c1800830  .d....\..(.....0
 1aa0 c9f82400 2148c9f8 200000f0 51f91c4a  ..$.!H.. ...Q..J
 1ab0 002800f0 b0800830 1b49d062 9162e4e6  .(.....0.I.b.b..
 1ac0 00f046f9 002800f0 98800830 c8f86400  ..F..(.....0..d.
 1ad0 1648c9f8 600000f0 3bf9114a 002800f0  .H..`...;..J.(..
 1ae0 87800830 1049d066 9166e9e6 c86b0838  ...0.I.f.f...k.8
 1af0 00f04ef9 06e5486b 083800f0 49f9fbe4  ..N...Hk.8..I...
 1b00 c0200740 80200740 90390000 c4200740  . .@. .@.9... .@
 1b10 ed95ff1f c8200740 cc200740 d0200740  ..... .@. .@. .@
 1b20 0080ff1f 94200740 c8004000 88004000  ..... .@..@...@.
 1b30 8195ff1f 94390000 f895ff1f f095ff1f  .....9..........
 1b40 ec95ff1f c86a0838 00f022f9 cee4606a  .....j.8.."...`j
 1b50 083800f0 1df9c3e4 c86f0838 00f018f9  .8.......o.8....
 1b60 00e5486f 083800f0 13f9f5e4 c86e0838  ..Ho.8.......n.8
 1b70 00f00ef9 eae4486e 083800f0 09f9dfe4  ......Hn.8......
 1b80 c86d0838 00f004f9 d4e4486d 083800f0  .m.8......Hm.8..
 1b90 fff8c9e4 c86c0838 00f0faf8 bee4486c  .....l.8......Hl
 1ba0 083800f0 f5f8b3e4 d1f89c00 083800f0  .8...........8..
 1bb0 eff8efe4 d1f89400 083800f0 e9f8e3e4  .........8......
 1bc0 d1f88c00 083800f0 e3f8d7e4 d1f88400  .....8..........
 1bd0 083800f0 ddf8cbe4 4ff0020e efe62978  .8......O.....)x
 1be0 90644a1c 2a705ee6 2a780132 2a7044e7  .dJ.*p^.*x.2*pD.
 1bf0 29789066 4a1c2a70 62e62a78 01322a70  )x.fJ.*pb.*x.2*p
 1c00 67e72978 c2f88800 4a1c2a70 64e62a78  g.)x....J.*pd.*x
 1c10 01322a70 19e72978 90624a1c 2a7034e6  .2*p..)x.bJ.*p4.
 1c20 2a780132 2a703ee7 bef1400f f44628bf  *x.2*p>...@..F(.
 1c30 4ff0400c 04eb0c03 02930123 cceb0e00  O.@........#....
 1c40 4fea0c48 00220193 26e500bf f8b500f0  O..H."..&.......
 1c50 59fe294b 29482a4c 2a4f2b4d dff8bcc0  Y.)K)H*L*O+M....
 1c60 dff8bce0 294e0022 1a605a60 9a60da60  ....)N.".`Z`.`.`
 1c70 1a615a61 9a61da61 1a625a62 9a62da62  .aZa.a.a.bZb.b.b
 1c80 1a635a63 9a63da63 1a645a64 9a64da64  .cZc.c.c.dZd.d.d
 1c90 1a655a65 9a65da65 1a665a66 9a66da66  .eZe.e.e.fZf.f.f
 1ca0 1a675a67 9a67da67 c3f88020 0168c3f8  .gZg.g.g... .h..
 1cb0 842041f4 80210160 c3f30721 2170c3f3  . A..!.`...!!p..
 1cc0 07401349 38701b0e 2b70ff23 8cf80030  .@.I8p..+p.#...0
 1cd0 104d8ef8 00301048 0b700123 337084f8  .M...0.H.p.#3p..
 1ce0 64207026 4ff40074 102207f8 2c3c2e70  d p&O..t."..,<.p
 1cf0 046081f8 f820f8bd 0080ff1f 34800440  .`... ......4..@
 1d00 9c200740 b0200740 b4200740 94200740  . .@. .@. .@. .@
 1d10 10200740 49e400e0 08e100e0 80200740  . .@I........ .@
 1d20 88200740 00f0a4b8 00f07cb8 00f056b8  . .@......|...V.
 1d30 00f090b8 00f0bcb9 00f096b9 08461146  .............F.F
 1d40 00f0b2b8 084600f0 83b900bf 704700bf  .....F......pG..
 1d50 72b60d48 0268b2fa 82f30b2b 10dc4ff0  r..H.h.....+..O.
 1d60 0041d940 22ea0102 026062b6 074803eb  .A.@"....`b..H..
 1d70 c303db00 c2180021 c1501046 51607047  .......!.P.FQ`pG
 1d80 62b60020 704700bf f488ff1f bc83ff1f  b.. pG..........
 1d90 0d4b0e4a c31aa2fb 03231b09 0b2b0cd8  .K.J.....#...+..
 1da0 0b4a1278 52b972b6 0a484ff0 00410268  .J.xR.r..HO..A.h
 1db0 21fa03f3 1a430260 62b67047 064a1278  !....C.`b.pG.J.x
 1dc0 002af0d0 fff742b9 bc83ff1f 398ee338  .*....B.....9..8
 1dd0 ed95ff1f f488ff1f f895ff1f 38b50f4d  ............8..M
 1de0 286878b1 43880288 c1180133 93420c7a  (hx.C......3.B.z
 1df0 02d24380 204638bd fff7caff 00232046  ..C. F8......# F
 1e00 2b6038bd 064b1b78 2bb10320 fff7eaf8  +`8..K.x+.. ....
 1e10 28600028 e6d14ff0 ff3038bd 0c96ff1f  (`.(..O..08.....
 1e20 f895ff1f 10b5094c 206818b1 43881844  .......L h..C..D
 1e30 007a10bd 064b1b78 2bb10320 fff7d2f8  .z...K.x+.. ....
 1e40 20600028 f2d14ff0 ff3010bd 0c96ff1f   `.(..O..0......
 1e50 f895ff1f 044b054a 1b689088 1bb11a88  .....K.J.h......
 1e60 5b88d31a 18447047 0c96ff1f f497ff1f  [....DpG........
 1e70 0b4b1b78 9bb110b5 0a4c2068 48b1fff7  .K.x.....L hH...
 1e80 87ff0023 03202360 fff7acf8 30b1fff7  ...#. #`....0...
 1e90 7fff0320 fff7a6f8 0028f8d1 10bd7047  ... .....(....pG
 1ea0 f895ff1f 0c96ff1f 2de9f04f 634a83b0  ........-..OcJ..
 1eb0 01231370 01910029 6cd0dff8 9081604f  .#.p...)l.....`O
 1ec0 0446d8f8 00000e46 002800f0 81805d4d  .F.....F.(....]M
 1ed0 4388c3f1 4001b142 28bf3146 03eb0109  C...@..B(.1F....
 1ee0 1ffa89f9 00f10802 4ff0000e 761aa0f8  ........O...v...
 1ef0 029001f1 ff3c1a44 85f800e0 002941d0  .....<.D.....)A.
 1f00 03f10805 0c330344 054404f1 04094d45  .....3.D.D....ME
 1f10 38bf9c42 2cbf0123 00230929 94bf0023  8..B,..#.#.)...#
 1f20 03f00103 002b4ad0 44ea0503 9b0746d1  .....+J.D.....F.
 1f30 0b1f9b08 0133bcf1 020f4fea 83093cd9  .....3....O...<.
 1f40 a4f1040a 9b460ef1 010e5af8 043f45f8  .....F....Z..?E.
 1f50 043bf345 f7d84945 4a44c9eb 0c0c04eb  .;.E..IEJD......
 1f60 090361d0 1d781570 bcf1000f 23d05d78  ..a..x.p....#.]x
 1f70 5570bcf1 010f1ed0 9b789370 2144b0f8  Up.......x.p!D..
 1f80 02900c46 b9f13f0f 0bd82f4b 05221a70  ...F..?.../K.".p
 1f90 002e99d1 0198294a 00231370 03b0bde8  ......)J.#.p....
 1fa0 f08f4023 03800146 0420fff7 b3f80020  ..@#...F. ..... 
 1fb0 c8f80000 e9e72144 e1e72346 d2e7013a  ......!D..#F...:
 1fc0 214414f8 013b02f8 013f8c42 f9d1d6e7  !D...;...?.B....
 1fd0 3b785bb3 1b4d4df2 e9094ff0 010a08e0  ;x[..MM...O.....
 1fe0 b9f10109 19d02b78 bbb900f0 b1f83b78  ......+x......;x
 1ff0 e3b10420 fff714f8 0728f1d8 0f4b83f8  ... .....(...K..
 2000 00a0fff7 a5fec8f8 00000028 7ff460af  ...........(..`.
 2010 0a4bb9f1 01091870 e5d10123 4ff0ff30  .K.....p...#O..0
 2020 2b7003b0 bde8f08f 1946a8e7 034a0023  +p.......F...J.#
 2030 4ff0ff30 137003b0 bde8f08f 0196ff1f  O..0.p..........
 2040 f895ff1f 0896ff1f 0096ff1f 0496ff1f  ................
 2050 00b583b0 02ab0121 03f8010d 1846fff7  .......!.....F..
 2060 23ff03b0 5df804fb 38b50e4d 0e4c2868  #...]...8..M.L(h
 2070 01232370 28b14088 00232370 c0f14000  .##p(.@..##p..@.
 2080 38bd0a4b 1b7813b9 00202070 38bd0420  8..K.x...  p8.. 
 2090 fef7c6ff 0728f7d8 fff75afe 28600028  .....(....Z.(`.(
 20a0 e9d1f1e7 0496ff1f 0196ff1f f895ff1f  ................
 20b0 f8b5114b 1b788bb1 104e114d 34680127  ...K.x...N.M4h.'
 20c0 2f7064b1 0f4a6388 00271770 21462380  /pd..Jc..'.p!F#.
 20d0 0420fff7 1ff83760 00232b70 f8bdfff7  . ....7`.#+p....
 20e0 37fe084b 28b10146 04201c70 fff712f8  7..K(..F. .p....
 20f0 f2e71f70 f0e700bf f895ff1f 0496ff1f  ...p............
 2100 0196ff1f 0096ff1f 38b50e4b 1b7873b9  ........8..K.xs.
 2110 0d4c2168 61b103f0 ff054b88 0b800420  .L!ha.....K.... 
 2120 fef7f8ff 256038bd 084b0122 1a7038bd  ....%`8..K.".p8.
 2130 fff70efe 0028f7d0 0146bde8 38400420  .....(...F..8@. 
 2140 fef7e8bf 0196ff1f 0496ff1f 0096ff1f  ................
 2150 38b5224c 237803b1 38bd0123 2370fff7  8."L#x..8..##p..
 2160 79fe70bb 00f026fa 40bb00f0 b9fa10bb  y.p...&.@.......
 2170 00f04cfb e0b90023 2370eff3 0583002b  ..L....##p.....+
 2180 ead1eff3 108172b6 154b1868 e0b1154c  ......r..K.h...L
 2190 2278cab9 45691d60 01232370 c5b1aa61  "x..Ei.`.##p...a
 21a0 01b962b6 00254577 83689847 2570d3e7  ..b..%Ew.h.G%p..
 21b0 00f08ef9 dfe700f0 89f9d9e7 00f084f9  ................
 21c0 d3e7fff7 c3fdcde7 0029c5d1 62b638bd  .........)..b.8.
 21d0 054b1d60 0029e5d1 e3e700bf 1196ff1f  .K.`.)..........
 21e0 2496ff1f 2896ff1f 2096ff1f 10b4047f  $...(... .......
 21f0 4160022c 0346c260 0fd0eff3 108172b6  A`.,.F.`......r.
 2200 427f32b9 007f0128 0ad00328 12d00122  B.2....(...(..."
 2210 5a7701b9 62b610bc 70478368 10bc1847  Zw..b...pG.h...G
 2220 114c2068 a0b11148 5a610268 9a610360  .L h...HZa.h.a.`
 2230 5361ece7 0e4c2068 80b10e48 5a610268  Sa...L h...HZa.h
 2240 9a610360 53610c4a 4ff08050 1060dee7  .a.`Sa.JO..P.`..
 2250 064a5861 98612360 1360d8e7 054a5861  .JXa.a#`.`...JXa
 2260 98612360 1360eee7 2496ff1f 2096ff1f  .a#`.`..$... ...
 2270 1496ff1f 1896ff1f 04ed00e0 70b5eff3  ............p...
 2280 108272b6 0c4c2068 80b10c4e 00254369  ..r..L h...N.%Ci
 2290 236073b1 9d6102b9 62b64577 83689847  #`s..a..b.Ew.h.G
 22a0 eff31082 72b62068 0028f0d1 02b962b6  ....r. h.(....b.
 22b0 70bd3360 efe700bf 1496ff1f 1896ff1f  p.3`............
 22c0 2de9f843 744d2c68 002c31d0 2368002b  -..CtM,h.,1.#h.+
 22d0 2cd1dff8 d891714f dff8d481 1e46a368  ,.....qO.....F.h
 22e0 03b1de60 20692b60 03682675 1b684b45  ...` i+`.h&u.hKE
 22f0 57d1037f 4660022b c46056d0 eff31082  W...F`.+.`V.....
 2300 72b6437f 43b9017f 012900f0 88800329  r.C.C....).....)
 2310 00f09180 01234377 02b962b6 6368002b  .....#Cw..b.ch.+
 2320 2cd12c68 24b12368 002bd8d0 013b2360  ,.,h$.#h.+...;#`
 2330 eff31083 72b65a4a 00211068 116003b9  ....r.ZJ.!.h.`..
 2340 62b60028 00f0a580 2c680227 4ff0000e  b..(....,h.'O...
 2350 8668002c 5fd00368 21688b42 3ad2cb1a  .h.,_..h!h.B:...
 2360 8460c0f8 0ce00146 2360e060 07753046  .`.....F#`.`.u0F
 2370 0c46002e ecd12960 bde8f883 2868464a  .F....)`....(hFJ
 2380 23600028 73d00168 8b4211d2 cb1aa060  #`.(s..h.B.....`
 2390 e6600360 c4601460 20460223 23750446  .`.`.`.` F.##u.F
 23a0 c1e72246 00219847 b8e78368 9847b5e7  .."F.!.G...h.G..
 23b0 864603e0 11688b42 964649d3 def80820  .F...h.B.FI.... 
 23c0 5b1a2360 002af5d1 a260c4f8 0ce0cef8  [.#`.*...`......
 23d0 0840e2e7 a44603e0 11688b42 94460cd3  .@...F...h.B.F..
 23e0 dcf80820 5b1a0360 002af5d1 8260c0f8  ... [..`.*...`..
 23f0 0cc02146 ccf80800 b8e7d268 c260c0f8  ..!F.......h.`..
 2400 08c0ccf8 0c00c268 cb1a9060 2146ccf8  .......h...`!F..
 2410 00300775 abe78460 c4600146 a6e7dff8  .0.u...`.`.F....
 2420 94e0def8 001039b3 1e494361 0b688361  ......9..ICa.h.a
 2430 08605861 6ee73968 29b31b49 43610b68  .`Xan.9h)..ICa.h
 2440 83610860 58614ff0 8053c8f8 003061e7  .a.`XaO..S...0a.
 2450 d268e260 c4f808e0 cef80c40 e268cb1a  .h.`.......@.h..
 2460 02219460 cef80030 21750446 5be7a060  .!.`...0!u.F[..`
 2470 e0601460 204690e7 0a4b4161 8161cef8  .`.` F...KAa.a..
 2480 00001860 46e7084b 41618161 38601860  ...`F..KAa.a8`.`
 2490 d9e7bde8 f88300bf 1c96ff1f 1496ff1f  ................
 24a0 2c96ff1f 2096ff1f 1896ff1f ed210000  ,... ........!..
 24b0 04ed00e0 2496ff1f 024a1368 01331360  ....$....J.h.3.`
 24c0 fff7febe 1495ff1f 704700bf 704700bf  ........pG..pG..
 24d0 704700bf 30b42948 294a2a4b 2a4d6024  pG..0.)H)J*K*M`$
 24e0 e1210470 11701b78 284c082b 30d00a2b  .!.p.p.x(L.+0..+
 24f0 27482849 37d00c2b 0cbf3522 5d221223  'H(I7..+..5"]".#
 2500 2a602360 02600b60 234b2449 1b78244a  *`#`.`.`#K$I.x$J
 2510 bbb10123 0b601360 224b2349 1b78234a  ...#.`.`"K#I.x#J
 2520 012b26d9 042b0fd9 082b1ed9 102b94bf  .+&..+...+...+..
 2530 86238723 0b601360 1d4b0122 1a7030bc  .#.#.`.`.K.".p0.
 2540 70470b60 1360e7e7 84230b60 1360f3e7  pG.`.`...#.`.`..
 2550 00f58e20 0f490830 21221323 2a602360  ... .I.0!".#*`#`
 2560 02600b60 d0e73922 f7e78523 0b601360  .`.`..9"...#.`.`
 2570 e2e78023 0b601360 dee700bf 00400740  ...#.`.`.....@.@
 2580 01400740 f888ff1f 08b00340 0cb00340  .@.@.......@...@
 2590 08b00b40 0cb00b40 3196ff1f 20b00340  ...@...@1... ..@
 25a0 20b00b40 f988ff1f 24b00340 24b00b40   ..@....$..@$..@
 25b0 3096ff1f 054a064b 10781b78 c0b2dbb2  0....J.K.x.x....
 25c0 984238bf 4030c01a 704700bf bc96ff1f  .B8.@0..pG......
 25d0 3996ff1f f0b4384b 1a7912f0 300f2cd0  9.....8K.y..0.,.
 25e0 72b6997d 01f0ff02 00293dd0 62b6334f  r..}.....)=.b.3O
 25f0 33493878 0d78334e 1c46c0b2 edb2431c  3I8x.x3N.F....C.
 2600 402be179 28bf0023 ab4202f1 ff32c9b2  @+.y(..#.B...2..
 2610 1cbff154 184612f0 ff02f0d1 2a4b1b68  ...T.F......*K.h
 2620 c2b23a70 4bb1a842 36bfc5f1 4005401b  ..:pK..B6...@.@.
 2630 40192728 c4bf0122 1a701f49 ca78d2b2  @.'(...".p.I.x..
 2640 150616d4 52060dd5 1b4b1b79 5b0609d5  ....R....K.y[...
 2650 1e4b1f49 1b680022 0a7003b1 1a70164b  .K.I.h.".p...p.K
 2660 3c22da70 f0bc7047 4022d979 5a7462b6  <".p..pG@".yZtb.
 2670 e3e70b79 1c06e5d5 164b174e 1c783378  ...y.....K.N.x3x
 2680 e4b2dbb2 9c420ed0 144d01e0 a3420ad0  .....B...M...B..
 2690 0133402b 28bf0023 0879e85c c0b2c871  .3@+(..#.y.\...q
 26a0 087d0728 f2d9dbb2 03493370 0b791806  .}.(.....I3p.y..
 26b0 44bf7c23 cb70c5e7 00a00640 bc96ff1f  D.|#.p.....@....
 26c0 3996ff1f 7c96ff1f 3496ff1f c096ff1f  9...|...4.......
 26d0 3896ff1f c496ff1f bd96ff1f 3c96ff1f  8...........<...
 26e0 054a064b 10781b78 c0b2dbb2 984238bf  .J.K.x.x.....B8.
 26f0 4030c01a 704700bf 3897ff1f cd96ff1f  @0..pG..8.......
 2700 f0b4384b 1a7912f0 300f2cd0 72b6997d  ..8K.y..0.,.r..}
 2710 01f0ff02 00293dd0 62b6334f 33493878  .....)=.b.3O3I8x
 2720 0d78334e 1c46c0b2 edb2431c 402be179  .x3N.F....C.@+.y
 2730 28bf0023 ab4202f1 ff32c9b2 1cbff154  (..#.B...2.....T
 2740 184612f0 ff02f0d1 2a4b1b68 c2b23a70  .F......*K.h..:p
 2750 4bb1a842 36bfc5f1 4005401b 40192728  K..B6...@.@.@.'(
 2760 c4bf0122 1a701f49 ca78d2b2 150616d4  ...".p.I.x......
 2770 52060dd5 1b4b1b79 5b0609d5 1e4b1f49  R....K.y[....K.I
 2780 1b680022 0a7003b1 1a70164b 3c22da70  .h.".p...p.K<".p
 2790 f0bc7047 4022d979 5a7462b6 e3e70b79  ..pG@".yZtb....y
 27a0 1c06e5d5 164b174e 1c783378 e4b2dbb2  .....K.N.x3x....
 27b0 9c420ed0 144d01e0 a3420ad0 0133282b  .B...M...B...3(+
 27c0 28bf0023 0879e85c c0b2c871 087d0728  (..#.y.\...q.}.(
 27d0 f2d9dbb2 03493370 0b791806 44bf7c23  .....I3p.y..D.|#
 27e0 cb70c5e7 00b00640 3897ff1f cd96ff1f  .p.....@8.......
 27f0 f896ff1f c896ff1f 3c97ff1f cc96ff1f  ........<.......
 2800 4097ff1f 3997ff1f d096ff1f 054a064b  @...9........J.K
 2810 10781b78 c0b2dbb2 984238bf 4030c01a  .x.x.....B8.@0..
 2820 704700bf b497ff1f 4997ff1f 30b42b4b  pG......I...0.+K
 2830 1a799406 1fd52a48 da790378 29490133  .y....*H.y.x)I.3
 2840 3f2b0978 c8bf0023 8b42d2b2 03d0264c  ?+.x...#.B....&L
 2850 d9b2e254 0170254a 116861b1 244a1278  ...T.p%J.ha.$J.x
 2860 d2b29342 36bfc2f1 40029b1a 9b18272b  ...B6...@.....'+
 2870 c4bf0123 0b70194a d378dbb2 180611d4  ...#.p.J.x......
 2880 5a060dd5 154b1b79 5b0609d5 194b1a49  Z....K.y[....K.I
 2890 1b680022 0a7003b1 1a70104b 2c22da70  .h.".p...p.K,".p
 28a0 30bc7047 11790906 ead51449 10480c78  0.pG.y.....I.H.x
 28b0 0178c9b2 8c420dd0 4a1c272a 84bf0021  .x...B..J.'*...!
 28c0 0a460f4d 054c98bf d1b2aa5c d2b2e271  .F.M.L.....\...q
 28d0 0170d5e7 6c21d170 d2e700bf 00c00640  .p..l!.p.......@
 28e0 b497ff1f 4997ff1f 7497ff1f 4497ff1f  ....I...t...D...
 28f0 b597ff1f b897ff1f 4897ff1f bc97ff1f  ........H.......
 2900 4c97ff1f 70b584b0 72b6304b 304d3148  L...p...r.0K0M1H
 2910 70224126 0f248021 1a702e70 1a460470  p"A&.$.!.p.p.F.p
 2920 19701378 1b06fcd5 2b4b1868 62b62b4b  .p.x....+K.hb.+K
 2930 984298bf 00eb8000 4ff00a02 98bf4000  .B......O.....@.
 2940 01a9fef7 17f99df8 0420254b 52b39df8  ......... %KR...
 2950 05105a80 61b39df8 06209980 52b39df8  ..Z.a.... ..R...
 2960 0710da80 41b39df8 08201981 32b39df8  ....A.... ..2...
 2970 09105a81 21b39df8 0a209981 12b39df8  ..Z.!.... ......
 2980 0b10da81 01b39df8 0c201982 4ab19df8  ......... ..J...
 2990 0d105a82 092229b1 16229982 1a7004b0  ..Z..").."...p..
 29a0 70bd0822 01325200 d2b21a70 04b070bd  p..".2R....p..p.
 29b0 0122f7e7 0222f5e7 0322f3e7 0422f1e7  ."..."..."..."..
 29c0 0522efe7 0622ede7 0722ebe7 00000240  ."..."...".....@
 29d0 07000240 06000240 08000240 7f969800  ...@...@...@....
 29e0 8889ff1f 0b460146 184600f0 5fba00bf  .....F.F.F.._...
 29f0 80f00040 02e000bf 81f00041 42001fbf  ...@.......AB...
 2a00 5fea4103 92ea030f 7fea226c 7fea236c  _.A......."l..#l
 2a10 6ad04fea 1262d2eb 1363c1bf d2184140  j.O..b...c....A@
 2a20 48404140 b8bf5b42 192b88bf 704710f0  H@A@..[B.+..pG..
 2a30 004f40f4 000020f0 7f4018bf 404211f0  .O@... ..@..@B..
 2a40 004f41f4 000121f0 7f4118bf 494292ea  .OA...!..A..IB..
 2a50 030f3fd0 a2f10102 41fa03fc 10eb0c00  ..?.....A.......
 2a60 c3f12003 01fa03f1 00f00043 02d54942  .. ........C..IB
 2a70 60eb4000 b0f5000f 13d3b0f1 807f06d3  `.@.............
 2a80 40084fea 310102f1 0102fe2a 51d2b1f1  @.O.1......*Q...
 2a90 004f40eb c25008bf 20f00100 40ea0300  .O@..P.. ...@...
 2aa0 70474900 40eb0000 10f4000f a2f10102  pGI.@...........
 2ab0 edd1b0fa 80fcacf1 080cb2eb 0c0200fa  ................
 2ac0 0cf0aabf 00ebc250 52421843 bcbfd040  .......PRB.C...@
 2ad0 18437047 92f0000f 81f40001 06bf80f4  .CpG............
 2ae0 00000132 013bb5e7 4fea4103 7fea226c  ...2.;..O.A..."l
 2af0 18bf7fea 236c21d0 92ea030f 04d092f0  ....#l!.........
 2b00 000f08bf 08467047 90ea010f 1cbf0020  .....FpG....... 
 2b10 704712f0 7f4f04d1 400028bf 40f00040  pG...O..@.(.@..@
 2b20 704712f1 00723cbf 00f50000 704700f0  pG...r<.....pG..
 2b30 004343f0 fe4040f4 00007047 7fea2262  .CC..@@...pG.."b
 2b40 16bf0846 7fea2363 01464202 06bf5fea  ...F..#c.FB..._.
 2b50 412390ea 010f40f4 80007047 4ff00003  A#....@...pGO...
 2b60 04e000bf 10f00043 48bf4042 5fea000c  .......CH.@B_...
 2b70 08bf7047 43f09643 01464ff0 00001ce0  ..pGC..C.FO.....
 2b80 50ea0102 08bf7047 4ff00003 0ae000bf  P.....pGO.......
 2b90 50ea0102 08bf7047 11f00043 02d54042  P.....pG...C..@B
 2ba0 61eb4101 5fea010c 02bf8446 01460020  a.A._......F.F. 
 2bb0 43f0b643 08bfa3f1 8053a3f5 0003bcfa  C..C.....S......
 2bc0 8cf2083a a3ebc253 10db01fa 02fc6344  ...:...S......cD
 2bd0 00fa02fc c2f12002 bcf1004f 20fa02f2  ...... ....O ...
 2be0 43eb0200 08bf20f0 01007047 02f12002  C..... ...pG.. .
 2bf0 01fa02fc c2f12002 50ea4c00 21fa02f2  ...... .P.L.!...
 2c00 43eb0200 08bf20ea dc707047 4ff0ff0c  C..... ..ppGO...
 2c10 1cead052 1ebf1cea d15392ea 0c0f93ea  ...R.....S......
 2c20 0c0f6fd0 1a4480ea 010c4002 18bf5fea  ..o..D....@..._.
 2c30 41211ed0 4ff00063 43ea5010 43ea5111  A!..O..cC.P.C.Q.
 2c40 a0fb0131 0cf00040 b1f5000f 3ebf4900  ...1...@....>.I.
 2c50 41ead371 5b0040ea 010062f1 7f02fd2a  A..q[.@...b....*
 2c60 1dd8b3f1 004f40eb c25008bf 20f00100  .....O@..P.. ...
 2c70 704790f0 000f0cf0 004c08bf 49024cea  pG.......L..I.L.
 2c80 502040ea 51207f3a c2bfd2f1 ff0340ea  P @.Q .:......@.
 2c90 c2507047 40f40000 4ff00003 013a5ddc  .PpG@...O....:].
 2ca0 12f1190f dcbf00f0 00407047 c2f10002  .........@pG....
 2cb0 410021fa 02f1c2f1 200200fa 02fc5fea  A.!..... ....._.
 2cc0 310040f1 000053ea 4c0308bf 20eadc70  1.@...S.L... ..p
 2cd0 704792f0 000f00f0 004c02bf 400010f4  pG.......L..@...
 2ce0 000f013a f9d040ea 0c0093f0 000f01f0  ...:..@.........
 2cf0 004c02bf 490011f4 000f013b f9d041ea  .L..I......;..A.
 2d00 0c018fe7 0cead153 92ea0c0f 18bf93ea  .......S........
 2d10 0c0f0ad0 30f0004c 18bf31f0 004cd8d1  ....0..L..1..L..
 2d20 80ea0100 00f00040 704790f0 000f17bf  .......@pG......
 2d30 90f0004f 084691f0 000f91f0 004f14d0  ...O.F.......O..
 2d40 92ea0c0f 01d14202 0fd193ea 0c0f03d1  ......B.........
 2d50 4b0218bf 084608d1 80ea0100 00f00040  K....F.........@
 2d60 40f0fe40 40f40000 704740f0 fe4040f4  @..@@...pG@..@@.
 2d70 40007047 4ff0ff0c 1cead052 1ebf1cea  @.pGO......R....
 2d80 d15392ea 0c0f93ea 0c0f69d0 a2eb0302  .S........i.....
 2d90 80ea010c 49024fea 402037d0 4ff08053  ....I.O.@ 7.O..S
 2da0 43ea1111 43ea1013 0cf00040 8b4238bf  C...C......@.B8.
 2db0 5b0042f1 7d024ff4 000c8b42 24bf5b1a  [.B.}.O....B$.[.
 2dc0 40ea0c00 b3eb510f 24bfa3eb 510340ea  @.....Q.$...Q.@.
 2dd0 5c00b3eb 910f24bf a3eb9103 40ea9c00  \.....$.....@...
 2de0 b3ebd10f 24bfa3eb d10340ea dc001b01  ....$.....@.....
 2df0 18bf5fea 1c1ce0d1 fd2a3ff6 50af8b42  .._......*?.P..B
 2e00 40ebc250 08bf20f0 01007047 0cf0004c  @..P.. ...pG...L
 2e10 4cea5020 7f32c2bf d2f1ff03 40eac250  L.P .2......@..P
 2e20 704740f4 00004ff0 0003013a 37e792f0  pG@...O....:7...
 2e30 000f00f0 004c02bf 400010f4 000f013a  .....L..@......:
 2e40 f9d040ea 0c0093f0 000f01f0 004c02bf  ..@..........L..
 2e50 490011f4 000f013b f9d041ea 0c0195e7  I......;..A.....
 2e60 0cead153 92ea0c0f 08d14202 7ff47daf  ...S......B...}.
 2e70 93ea0c0f 7ff470af 084676e7 93ea0c0f  ......p..Fv.....
 2e80 04d14b02 3ff44caf 08466ee7 30f0004c  ..K.?.L..Fn.0..L
 2e90 18bf31f0 004ccad1 30f00042 7ff45caf  ..1..L..0..B..\.
 2ea0 31f00043 7ff43caf 5fe700bf 13460a46  1..C..<._....F.F
 2eb0 01460220 00f004bb 014b1868 704700bf  .F. .....K.hpG..
 2ec0 c88dff1f 70b50f4e 0f4d761b b61018bf  ....p..N.Mv.....
 2ed0 002405d0 013455f8 043b9847 a642f9d1  .$...4U..;.G.B..
 2ee0 0a4e0b4d 761b00f0 81fdb610 18bf0024  .N.Mv..........$
 2ef0 06d00134 55f8043b 9847a642 f9d170bd  ...4U..;.G.B..p.
 2f00 70bd00bf f8390000 f8390000 043a0000  p....9...9...:..
 2f10 f8390000 024b0146 186800f0 03b800bf  .9...K.F.h......
 2f20 c88dff1f 2de9f04f 01f10b05 162d83b0  ....-..O.....-..
 2f30 064640f2 9f8035f0 070500f1 bf80a942  .F@...5........B
 2f40 00f2bc80 00f0a6fa b5f5fc7f c0f09c82  ................
 2f50 6b0a00f0 ba80042b 00f28381 a80900f1  k......+........
 2f60 390e4fea 4e033830 c44f07eb 8303a3f1  9.O.N.80.O......
 2f70 08015c68 a14207d1 ace0002a 80f2ac80  ..\h.B.....*....
 2f80 e468a142 00f0a680 636823f0 03035a1b  .h.B....ch#...Z.
 2f90 0f2af2dd b9493c69 01f1080e 744500f0  .*...I<i....tE..
 2fa0 b3816368 23f00303 5a1b0f2a 00f39981  ..ch#...Z..*....
 2fb0 002ac1f8 14e0c1f8 10e080f2 9e80b3f5  .*..............
 2fc0 007f80f0 6781db08 03f1010c 01229b10  ....g........"..
 2fd0 02fa03f3 4a6851f8 3c80c4f8 088001eb  ....JhQ.<.......
 2fe0 cc091a43 a9f10803 e3604a60 41f83c40  ...C.....`J`A.<@
 2ff0 c8f80c40 83100124 9c409442 00f28a80  ...@...$.@.B....
 3000 144206d1 20f00300 64001442 00f10400  .B.. ...d..B....
 3010 fad007eb c009cc46 8046dcf8 0c108c45  .......F.F.....E
 3020 07d173e1 002a80f2 8181c968 8c4500f0  ..s..*.....h.E..
 3030 6d814b68 23f00303 5a1b0f2a f2dd0c46  m.Kh#...Z..*...F
 3040 d1f80cc0 54f8088f 4b1945f0 01054d60  ....T...K.E...M`
 3050 42f00101 c8f80cc0 3046ccf8 08807b61  B.......0F....{a
 3060 3b61c3f8 0ce0c3f8 08e05960 9a5000f0  ;a........Y`.P..
 3070 13fa1fe0 102921d8 00f00cfa 10250623  .....)!......%.#
 3080 02207e4f 07eb8303 a3f10802 5c689442  . ~O........\h.B
 3090 00f04581 6368e168 a56823f0 03032344  ..E.ch.h.h#...#D
 30a0 30465a68 e96042f0 01028d60 5a6000f0  0FZh.`B....`Z`..
 30b0 f3f90834 204603b0 bde8f08f 00240c23  ...4 F.......$.#
 30c0 20463360 03b0bde8 f08f8023 4ff0400e   F3`.......#O.@.
 30d0 3f2049e7 70465de7 2344e168 5a68a568  ? I.pF].#D.hZh.h
 30e0 42f00102 e9603046 8d605a60 00f0d4f9  B....`0F.`Z`....
 30f0 08342046 03b0bde8 f08f2344 30465a68  .4 F......#D0FZh
 3100 42f00102 5a6000f0 c7f90834 204603b0  B...Z`.....4 F..
 3110 bde8f08f bc686368 23f00308 a84504d3  .....hch#....E..
 3120 c5eb0803 0f2b00f3 8c80554b dff86091  .....+....UK..`.
 3130 1a68d9f8 00300133 2a4404eb 080a00f0  .h...0.3*D......
 3140 608102f5 80520f32 22f47f62 22f00f02  `....R.2"..b"...
 3150 11463046 019200f0 a1f9b0f1 ff3f8346  .F0F.........?.F
 3160 019a00f0 58818245 00f2fc80 454b1968  ....X..E....EK.h
 3170 da451144 196000f0 5381d9f8 0000dff8  .E.D.`..S.......
 3180 10e10130 1bbfcaeb 0b0a5144 cef800b0  ...0......QD....
 3190 19601bf0 070100f0 1781c1f1 0800c1f5  .`..............
 31a0 80518344 08315a44 c2f30b02 c2eb0109  .Q.D.1ZD........
 31b0 49463046 019300f0 71f9431c 019b00f0  IF0F....q.C.....
 31c0 3f81cbeb 00024a44 42f00102 1968c7f8  ?.....JDB....h..
 31d0 08b04944 bc42cbf8 04201960 dff8a490  ..ID.B... .`....
 31e0 16d0b8f1 0f0f40f2 fd806268 a8f10c03  ......@...bh....
 31f0 23f00703 e01802f0 01024ff0 050e1a43  #.........O....C
 3200 0f2b6260 c0f804e0 c0f808e0 00f21c81  .+b`............
 3210 1d4bbc68 1a689142 88bf1960 1b4b1a68  .K.h.h.B...`.K.h
 3220 91426268 88bf1960 22f00302 9542a2eb  .Bbh...`"....B..
 3230 050301d8 0f2b04dc 304600f0 2df90024  .....+..0F..-..$
 3240 38e76219 43f00103 45f00105 65603046  8.b.C...E...e`0F
 3250 ba605360 00f020f9 08342046 03b0bde8  .`S`.. ..4 F....
 3260 f08f142b 71d9542b 00f2a480 280b00f1  ...+q.T+....(...
 3270 6f0e4fea 4e036e30 76e600bf cc8dff1f  o.O.N.n0v.......
 3280 c897ff1f cc97ff1f c497ff1f c097ff1f  ................
 3290 d891ff1f 5a0a042a 5ed9142a 00f2b380  ....Z..*^..*....
 32a0 02f15c01 49005b32 07eb810c 57f82110  ..\.I.[2....W.!.
 32b0 dff8dc81 acf1080c 8c4500f0 88804a68  .........E....Jh
 32c0 22f00302 934202d2 89688c45 f7d1d1f8  "....B...h.E....
 32d0 0cc07a68 c4f80cc0 a160ccf8 0840cc60  ..zh.....`...@.`
 32e0 88e66319 42f00107 45f00105 65603046  ..c.B...E...e`0F
 32f0 4b610b61 c3f80ce0 c3f808e0 5f609a50  Ka.a........_`.P
 3300 083400f0 c9f8d5e6 4a6873e6 08f10108  .4......Jhs.....
 3310 18f0030f 0cf1080c 7ff47fae 30e0dc68  ............0..h
 3320 a34208bf 02303ff4 35aeb3e6 0b440c46  .B...0?.5....D.F
 3330 5a68c968 54f8085f 42f00102 5a603046  Zh.hT.._B...Z`0F
 3340 e9608d60 00f0a8f8 b4e603f1 5c0e03f1  .`.`........\...
 3350 5b004fea 4e0307e6 9a0902f1 39014900  [.O.N.......9.I.
 3360 3832a1e7 bc424a4b 3ff400af 9c686268  82...BJK?....hbh
 3370 22f00302 5ae759f8 08399945 40f08280  "...Z.Y..9.E@...
 3380 10f0030f 00f1ff30 f5d17b68 23ea0403  .......0..{h#...
 3390 7b606400 9c423ff6 bdae002c 3ff4baae  {`d..B?....,?...
 33a0 1c424046 7ff435ae 64001c42 00f10400  .B@F..5.d..B....
 33b0 fad02ee6 b3f5aa7f 18d8e80b 00f1780e  ..............x.
 33c0 4fea4e03 7730cfe5 4ff48051 ebe60121  O.N.w0..O..Q...!
 33d0 d8f80430 921001fa 02f21a43 c8f80420  ...0.......C... 
 33e0 614677e7 0123cbf8 043025e7 40f25452  aFw..#...0%.@.TR
 33f0 934220d8 a80c00f1 7d0e4fea 4e037c30  .B .....}.O.N.|0
 3400 b2e51032 a4e6542a 26d81a0b 02f16f01  ...2..T*&.....o.
 3410 49006e32 48e7bc68 626822f0 030205e7  I.n2H..hbh".....
 3420 caf30b00 00287ff4 a8ae4244 bb6842f0  .....(....BD.hB.
 3430 01025a60 ece6fe23 4ff07f0e 7e2093e5  ..Z`...#O...~ ..
 3440 01224ff0 0009c1e6 04f10801 304600f0  ."O.........0F..
 3450 fbf8d9f8 0010dbe6 b2f5aa7f 05d8da0b  ................
 3460 02f17801 49007732 1ee740f2 54518a42  ..x.I.w2..@.TQ.B
 3470 05d89a0c 02f17d01 49007c32 14e7fe21  ......}.I.|2...!
 3480 7e2211e7 7b6884e7 e808431c 5b00f8e5  ~"..{h....C.[...
 3490 cc8dff1f 704700bf 704700bf 38b5074c  ....pG..pG..8..L
 34a0 00230546 08462360 fdf74efb 431c00d0  .#.F.F#`..N.C...
 34b0 38bd2368 002bfbd0 2b6038bd 0898ff1f  8.#h.+..+`8.....
 34c0 2de9f047 254c2568 d5f84841 06468846  -..G%L%h..HA.F.F
 34d0 92469946 c4b36068 1f2817dc 431c76b1  .F.F..`h.(..C.v.
 34e0 04eb8005 0122c5f8 88a0d4f8 88118240  .....".........@
 34f0 1143022e c4f88811 c5f80891 1ed00230  .C.............0
 3500 636044f8 20800020 bde8f087 144b03b3  c`D. .. .....K..
 3510 4ff4c870 fff7fefc 0446d0b1 d5f84831  O..p.....F....H1
 3520 002780e8 8800c5f8 48413846 0123c4f8  .'......HA8F.#..
 3530 8871c4f8 8c71002e e1d0d1e7 d4f88c11  .q...q..........
 3540 0a43c4f8 8c21dae7 05f5a674 c5f84841  .C...!.....t..HA
 3550 c1e74ff0 ff30bde8 f08700bf e8390000  ..O..0.......9..
 3560 152f0000 024b13b1 024800f0 05b87047  ./...K...H....pG
 3570 00000000 85350000 00230146 1a461846  .....5...#.F.F.F
 3580 fff79ebf 38b5074d 074c2c1b a41005d0  ....8..M.L,.....
 3590 013c55f8 043d9847 002cf9d1 bde83840  .<U..=.G.,....8@
 35a0 00f030ba 00000000 00000000 f8b5234f  ..0...........#O
 35b0 0c460646 fff76eff bb685d68 25f00305  .F.F..n..h]h%...
 35c0 291b01f6 ef7121f4 7f6121f0 0f01a1f5  )....q!..a!.....
 35d0 8054b4f5 805f07db 00213046 fff75eff  .T..._...!0F..^.
 35e0 bb682b44 984204d0 3046fff7 55ff0020  .h+D.B..0F..U.. 
 35f0 f8bd6142 3046fff7 51ff0130 0dd0104b  ..aB0F..Q..0...K
 3600 ba681968 2d1b45f0 01053046 091b5560  .h.h-.E...0F..U`
 3610 1960fff7 41ff0120 f8bd0021 3046fff7  .`..A.. ...!0F..
 3620 3dffba68 831a0f2b dedd064c 04492468  =..h...+...L.I$h
 3630 43f00103 001b5360 0860d5e7 cc8dff1f  C.....S`.`......
 3640 cc97ff1f d891ff1f 002945d0 2de9f041  .........)E.-..A
 3650 0d468046 fff71eff 55f8047c 6a4927f0  .F.F....U..|jI'.
 3660 0103a5f1 0804e218 8e685068 b24220f0  .........hPh.B .
 3670 030062d0 fe075060 0bd455f8 087ce41b  ..b...P`..U..|..
 3680 01f1080e a5687545 3b446fd0 e768ef60  .....huE;Do..h.`
 3690 bd601518 6d68ed07 42d543f0 01026260  .`..mh..B.C...b`
 36a0 e350b3f5 007f18d2 db085a1c 4d6851f8  .P........Z.MhQ.
 36b0 3270a760 01209b10 00fa03f3 01ebc200  2p.`. ..........
 36c0 1d430838 e0604d60 41f83240 fc604046  .C.8.`M`A.2@.`@F
 36d0 bde8f041 fff7e0be 70475a0a 042a53d8  ...A....pGZ..*S.
 36e0 9a0902f1 39077f00 02f13805 01eb8700  ....9.....8.....
 36f0 51f82720 44490838 90424dd0 516821f0  Q.' DI.8.BM.Qh!.
 3700 03018b42 02d29268 9042f7d1 d068e060  ...B...h.B...h.`
 3710 a2608460 d4604046 bde8f041 fff7bcbe  .`.`.`@F...A....
 3720 95683a4f bd420344 3fd0d068 e86043f0  .h:O.B.D?..h.`C.
 3730 01028560 6260e350 b3e7ff07 034407d4  ...`b`.P.....D..
 3740 55f8082c a41a1344 a068e268 c2609060  U..,...D.h.h.`.`
 3750 2f4a1268 43f00100 93426060 8c60b6d3  /J.hC....B``.`..
 3760 2c4b4046 1968fff7 21ffb0e7 11184968  ,K@F.h..!.....Ih
 3770 c90744d4 9168d268 ca600344 43f00100  ..D..h.h.`.DC...
 3780 91606060 e350a2e7 142a17d8 02f15c07  .```.P...*....\.
 3790 7f0002f1 5b05a9e7 aa104b68 012505fa  ....[.....Kh.%..
 37a0 02f21343 4b600246 b1e743f0 01024c61  ...CK`.F..C...La
 37b0 0c61e560 a5606260 e35088e7 542a06d8  .a.`.`b`.P..T*..
 37c0 1a0b02f1 6f077f00 02f16e05 8ee7b2f5  ....o.....n.....
 37d0 aa7f06d8 da0b02f1 78077f00 02f17705  ........x.....w.
 37e0 84e740f2 54508242 06d89a0c 02f17d07  ..@.TP.B......}.
 37f0 7f0002f1 7c0579e7 fe277e25 76e743f0  ....|.y..'~%v.C.
 3800 01026260 e35062e7 cc8dff1f d48dff1f  ..b`.Pb.........
 3810 d491ff1f c897ff1f 53656e73 6f72204f  ........Sensor O
 3820 6e205069 6e200000 20436f6d 706c6574  n Pin .. Complet
 3830 6500ffff 496e6974 20496e74 65727275  e...Init Interru
 3840 70747320 2d200000 436f6d70 6c657465  pts - ..Complete
 3850 00000000 0d0affff 4008fe43 40a00440  ........@..C@..@
 3860 4408fe43 44a00440 0018fe43 00c00440  D..CD..@...C...@
 3870 3000fe43 30900440 3400fe43 34900440  0..C0..@4..C4..@
 3880 1c18fe43 1cc00440 1018fe43 10c00440  ...C...@...C...@
 3890 0818fe43 08c00440 0c18fe43 0cc00440  ...C...@...C...@
 38a0 0c10fe43 0cb00440 1010fe43 10b00440  ...C...@...C...@
 38b0 1810fe43 18b00440 1c10fe43 1cb00440  ...C...@...C...@
 38c0 1410fe43 14b00440 0418fe43 04c00440  ...C...@...C...@
 38d0 0010fe43 00b00440 0008fe43 00a00440  ...C...@...C...@
 38e0 0408fe43 04a00440 0c08fe43 0ca00440  ...C...@...C...@
 38f0 0808fe43 08a00440 1418fe43 14c00440  ...C...@...C...@
 3900 1818fe43 18c00440 0410fe43 04b00440  ...C...@...C...@
 3910 0810fe43 08b00440 1400fe43 14900440  ...C...@...C...@
 3920 4c08fe43 4ca00440 0420fe43 04d00440  L..CL..@. .C...@
 3930 2410fe43 24b00440 2010fe43 20b00440  $..C$..@ ..C ..@
 3940 2810fe43 28b00440 2c10fe43 2cb00440  (..C(..@,..C,..@
 3950 0020fe43 00d00440 4808fe43 48a00440  . .C...@H..CH..@
 3960 1000fe43 10900440 00000000 00000000  ...C...@........
 3970 451d0000 3d1d0000 391d0000 351d0000  E...=...9...5...
 3980 311d0000 2d1d0000 291d0000 251d0000  1...-...)...%...
 3990 00151915 00010000 fc88ff1f 12000000  ................
 39a0 00020000 2889ff1f 43000000 00030000  ....(...C.......
 39b0 8489ff1f 00000000 01030904 1089ff1f  ................
 39c0 00000000 02030904 6c89ff1f 00000000  ........l.......
 39d0 03030904 8889ff1f 00000000 00000000  ................
 39e0 00000000 00000000 a089ff1f f8b500bf  ................
 39f0 f8bc08bc 9e467047 65350000 35040000  .....FpGe5..5...
 3a00 45090000                             E...            
Contents of section .fini:
 3a04 f8b500bf                             ....            
Contents of section .ARM.exidx:
 3a08 dcefff7f 01000000                    ........        
Contents of section .data:
 1fff8720 38b5084b 1c681c60 54b1074d 94faa4f3  8..K.h.`T..M....
 1fff8730 b3fa83f3 55f82330 9847631e 1c40f5d1  ....U.#0.Gc..@..
 1fff8740 38bd00bf a0d00440 dc88ff1f 38b5084b  8......@....8..K
 1fff8750 1c681c60 54b1074d 94faa4f3 b3fa83f3  .h.`T..M........
 1fff8760 55f82330 9847631e 1c40f5d1 38bd00bf  U.#0.Gc..@..8...
 1fff8770 a0c00440 bc88ff1f 38b5084b 1c681c60  ...@....8..K.h.`
 1fff8780 54b1074d 94faa4f3 b3fa83f3 55f82330  T..M........U.#0
 1fff8790 9847631e 1c40f5d1 38bd00bf a0b00440  .Gc..@..8......@
 1fff87a0 8c88ff1f 38b5084b 1c681c60 54b1074d  ....8..K.h.`T..M
 1fff87b0 94faa4f3 b3fa83f3 55f82330 9847631e  ........U.#0.Gc.
 1fff87c0 1c40f5d1 38bd00bf a0a00440 3c88ff1f  .@..8......@<...
 1fff87d0 38b5084b 1c681c60 54b1074d 94faa4f3  8..K.h.`T..M....
 1fff87e0 b3fa83f3 55f82330 9847631e 1c40f5d1  ....U.#0.Gc..@..
 1fff87f0 38bd00bf a0900440 0488ff1f 00000000  8......@........
 1fff8800 0c98ff1f c10b0000 c10b0000 c10b0000  ................
 1fff8810 c10b0000 c10b0000 c10b0000 c10b0000  ................
 1fff8820 c10b0000 c10b0000 c10b0000 c10b0000  ................
 1fff8830 c10b0000 c10b0000 c10b0000 c10b0000  ................
 1fff8840 c10b0000 c10b0000 c10b0000 c10b0000  ................
 1fff8850 c10b0000 c10b0000 c10b0000 c10b0000  ................
 1fff8860 c10b0000 c10b0000 c10b0000 c10b0000  ................
 1fff8870 c10b0000 c10b0000 c10b0000 c10b0000  ................
 1fff8880 c10b0000 c10b0000 c10b0000 c10b0000  ................
 1fff8890 c10b0000 c10b0000 c10b0000 c10b0000  ................
 1fff88a0 c10b0000 c10b0000 c10b0000 c10b0000  ................
 1fff88b0 c10b0000 c10b0000 c10b0000 c10b0000  ................
 1fff88c0 c10b0000 c10b0000 c10b0000 c10b0000  ................
 1fff88d0 c10b0000 c10b0000 c10b0000 c10b0000  ................
 1fff88e0 c10b0000 70390000 00000000 e8030000  ....p9..........
 1fff88f0 00000000 ffffffff 0a040000 12010101  ................
 1fff8900 02000040 c0168304 00020102 03010000  ...@............
 1fff8910 18035400 65006500 6e007300 79006400  ..T.e.e.n.s.y.d.
 1fff8920 75006900 6e006f00 09024300 020100c0  u.i.n.o...C.....
 1fff8930 32090400 00010202 01000524 00100105  2..........$....
 1fff8940 24010101 04240206 05240600 01070582  $....$...$......
 1fff8950 03100040 09040100 020a0000 00070503  ...@............
 1fff8960 02400000 07058402 40000000 16035500  .@......@.....U.
 1fff8970 53004200 20005300 65007200 69006100  S.B. .S.e.r.i.a.
 1fff8980 6c000000 04030904 0c030000 00000000  l...............
 1fff8990 00000000 00000000 00000000 00000000  ................
 1fff89a0 00000000 8c8cff1f f48cff1f 5c8dff1f  ............\...
 1fff89b0 00000000 00000000 00000000 00000000  ................
 1fff89c0 00000000 00000000 00000000 00000000  ................
 1fff89d0 00000000 00000000 00000000 00000000  ................
 1fff89e0 00000000 00000000 00000000 00000000  ................
 1fff89f0 00000000 00000000 00000000 00000000  ................
 1fff8a00 00000000 00000000 00000000 00000000  ................
 1fff8a10 00000000 00000000 00000000 00000000  ................
 1fff8a20 00000000 00000000 00000000 00000000  ................
 1fff8a30 00000000 00000000 00000000 00000000  ................
 1fff8a40 00000000 00000000 01000000 00000000  ................
 1fff8a50 0e33cdab 34126de6 ecde0500 0b000000  .3..4.m.........
 1fff8a60 00000000 00000000 00000000 00000000  ................
 1fff8a70 00000000 00000000 00000000 00000000  ................
 1fff8a80 00000000 00000000 00000000 00000000  ................
 1fff8a90 00000000 00000000 00000000 00000000  ................
 1fff8aa0 00000000 00000000 00000000 00000000  ................
 1fff8ab0 00000000 00000000 00000000 00000000  ................
 1fff8ac0 00000000 00000000 00000000 00000000  ................
 1fff8ad0 00000000 00000000 00000000 00000000  ................
 1fff8ae0 00000000 00000000 00000000 00000000  ................
 1fff8af0 00000000 00000000 00000000 00000000  ................
 1fff8b00 00000000 00000000 00000000 00000000  ................
 1fff8b10 00000000 00000000 00000000 00000000  ................
 1fff8b20 00000000 00000000 00000000 00000000  ................
 1fff8b30 00000000 00000000 00000000 00000000  ................
 1fff8b40 00000000 00000000 00000000 00000000  ................
 1fff8b50 00000000 00000000 00000000 00000000  ................
 1fff8b60 00000000 00000000 00000000 00000000  ................
 1fff8b70 00000000 00000000 00000000 00000000  ................
 1fff8b80 00000000 00000000 00000000 00000000  ................
 1fff8b90 00000000 00000000 00000000 00000000  ................
 1fff8ba0 00000000 00000000 00000000 00000000  ................
 1fff8bb0 00000000 00000000 00000000 00000000  ................
 1fff8bc0 00000000 00000000 00000000 00000000  ................
 1fff8bd0 00000000 00000000 00000000 00000000  ................
 1fff8be0 00000000 00000000 00000000 00000000  ................
 1fff8bf0 00000000 00000000 00000000 00000000  ................
 1fff8c00 00000000 00000000 00000000 00000000  ................
 1fff8c10 00000000 00000000 00000000 00000000  ................
 1fff8c20 00000000 00000000 00000000 00000000  ................
 1fff8c30 00000000 00000000 00000000 00000000  ................
 1fff8c40 00000000 00000000 00000000 00000000  ................
 1fff8c50 00000000 00000000 00000000 00000000  ................
 1fff8c60 00000000 00000000 00000000 00000000  ................
 1fff8c70 00000000 00000000 00000000 00000000  ................
 1fff8c80 00000000 00000000 00000000 00000000  ................
 1fff8c90 00000000 00000000 00000000 00000000  ................
 1fff8ca0 00000000 00000000 00000000 00000000  ................
 1fff8cb0 00000000 00000000 00000000 00000000  ................
 1fff8cc0 00000000 00000000 00000000 00000000  ................
 1fff8cd0 00000000 00000000 00000000 00000000  ................
 1fff8ce0 00000000 00000000 00000000 00000000  ................
 1fff8cf0 00000000 00000000 00000000 00000000  ................
 1fff8d00 00000000 00000000 00000000 00000000  ................
 1fff8d10 00000000 00000000 00000000 00000000  ................
 1fff8d20 00000000 00000000 00000000 00000000  ................
 1fff8d30 00000000 00000000 00000000 00000000  ................
 1fff8d40 00000000 00000000 00000000 00000000  ................
 1fff8d50 00000000 00000000 00000000 00000000  ................
 1fff8d60 00000000 00000000 00000000 00000000  ................
 1fff8d70 00000000 00000000 00000000 00000000  ................
 1fff8d80 00000000 00000000 00000000 00000000  ................
 1fff8d90 00000000 00000000 00000000 00000000  ................
 1fff8da0 00000000 00000000 00000000 00000000  ................
 1fff8db0 00000000 00000000 00000000 00000000  ................
 1fff8dc0 00000000 00000000 a089ff1f 00000000  ................
 1fff8dd0 00000000 cc8dff1f cc8dff1f d48dff1f  ................
 1fff8de0 d48dff1f dc8dff1f dc8dff1f e48dff1f  ................
 1fff8df0 e48dff1f ec8dff1f ec8dff1f f48dff1f  ................
 1fff8e00 f48dff1f fc8dff1f fc8dff1f 048eff1f  ................
 1fff8e10 048eff1f 0c8eff1f 0c8eff1f 148eff1f  ................
 1fff8e20 148eff1f 1c8eff1f 1c8eff1f 248eff1f  ............$...
 1fff8e30 248eff1f 2c8eff1f 2c8eff1f 348eff1f  $...,...,...4...
 1fff8e40 348eff1f 3c8eff1f 3c8eff1f 448eff1f  4...<...<...D...
 1fff8e50 448eff1f 4c8eff1f 4c8eff1f 548eff1f  D...L...L...T...
 1fff8e60 548eff1f 5c8eff1f 5c8eff1f 648eff1f  T...\...\...d...
 1fff8e70 648eff1f 6c8eff1f 6c8eff1f 748eff1f  d...l...l...t...
 1fff8e80 748eff1f 7c8eff1f 7c8eff1f 848eff1f  t...|...|.......
 1fff8e90 848eff1f 8c8eff1f 8c8eff1f 948eff1f  ................
 1fff8ea0 948eff1f 9c8eff1f 9c8eff1f a48eff1f  ................
 1fff8eb0 a48eff1f ac8eff1f ac8eff1f b48eff1f  ................
 1fff8ec0 b48eff1f bc8eff1f bc8eff1f c48eff1f  ................
 1fff8ed0 c48eff1f cc8eff1f cc8eff1f d48eff1f  ................
 1fff8ee0 d48eff1f dc8eff1f dc8eff1f e48eff1f  ................
 1fff8ef0 e48eff1f ec8eff1f ec8eff1f f48eff1f  ................
 1fff8f00 f48eff1f fc8eff1f fc8eff1f 048fff1f  ................
 1fff8f10 048fff1f 0c8fff1f 0c8fff1f 148fff1f  ................
 1fff8f20 148fff1f 1c8fff1f 1c8fff1f 248fff1f  ............$...
 1fff8f30 248fff1f 2c8fff1f 2c8fff1f 348fff1f  $...,...,...4...
 1fff8f40 348fff1f 3c8fff1f 3c8fff1f 448fff1f  4...<...<...D...
 1fff8f50 448fff1f 4c8fff1f 4c8fff1f 548fff1f  D...L...L...T...
 1fff8f60 548fff1f 5c8fff1f 5c8fff1f 648fff1f  T...\...\...d...
 1fff8f70 648fff1f 6c8fff1f 6c8fff1f 748fff1f  d...l...l...t...
 1fff8f80 748fff1f 7c8fff1f 7c8fff1f 848fff1f  t...|...|.......
 1fff8f90 848fff1f 8c8fff1f 8c8fff1f 948fff1f  ................
 1fff8fa0 948fff1f 9c8fff1f 9c8fff1f a48fff1f  ................
 1fff8fb0 a48fff1f ac8fff1f ac8fff1f b48fff1f  ................
 1fff8fc0 b48fff1f bc8fff1f bc8fff1f c48fff1f  ................
 1fff8fd0 c48fff1f cc8fff1f cc8fff1f d48fff1f  ................
 1fff8fe0 d48fff1f dc8fff1f dc8fff1f e48fff1f  ................
 1fff8ff0 e48fff1f ec8fff1f ec8fff1f f48fff1f  ................
 1fff9000 f48fff1f fc8fff1f fc8fff1f 0490ff1f  ................
 1fff9010 0490ff1f 0c90ff1f 0c90ff1f 1490ff1f  ................
 1fff9020 1490ff1f 1c90ff1f 1c90ff1f 2490ff1f  ............$...
 1fff9030 2490ff1f 2c90ff1f 2c90ff1f 3490ff1f  $...,...,...4...
 1fff9040 3490ff1f 3c90ff1f 3c90ff1f 4490ff1f  4...<...<...D...
 1fff9050 4490ff1f 4c90ff1f 4c90ff1f 5490ff1f  D...L...L...T...
 1fff9060 5490ff1f 5c90ff1f 5c90ff1f 6490ff1f  T...\...\...d...
 1fff9070 6490ff1f 6c90ff1f 6c90ff1f 7490ff1f  d...l...l...t...
 1fff9080 7490ff1f 7c90ff1f 7c90ff1f 8490ff1f  t...|...|.......
 1fff9090 8490ff1f 8c90ff1f 8c90ff1f 9490ff1f  ................
 1fff90a0 9490ff1f 9c90ff1f 9c90ff1f a490ff1f  ................
 1fff90b0 a490ff1f ac90ff1f ac90ff1f b490ff1f  ................
 1fff90c0 b490ff1f bc90ff1f bc90ff1f c490ff1f  ................
 1fff90d0 c490ff1f cc90ff1f cc90ff1f d490ff1f  ................
 1fff90e0 d490ff1f dc90ff1f dc90ff1f e490ff1f  ................
 1fff90f0 e490ff1f ec90ff1f ec90ff1f f490ff1f  ................
 1fff9100 f490ff1f fc90ff1f fc90ff1f 0491ff1f  ................
 1fff9110 0491ff1f 0c91ff1f 0c91ff1f 1491ff1f  ................
 1fff9120 1491ff1f 1c91ff1f 1c91ff1f 2491ff1f  ............$...
 1fff9130 2491ff1f 2c91ff1f 2c91ff1f 3491ff1f  $...,...,...4...
 1fff9140 3491ff1f 3c91ff1f 3c91ff1f 4491ff1f  4...<...<...D...
 1fff9150 4491ff1f 4c91ff1f 4c91ff1f 5491ff1f  D...L...L...T...
 1fff9160 5491ff1f 5c91ff1f 5c91ff1f 6491ff1f  T...\...\...d...
 1fff9170 6491ff1f 6c91ff1f 6c91ff1f 7491ff1f  d...l...l...t...
 1fff9180 7491ff1f 7c91ff1f 7c91ff1f 8491ff1f  t...|...|.......
 1fff9190 8491ff1f 8c91ff1f 8c91ff1f 9491ff1f  ................
 1fff91a0 9491ff1f 9c91ff1f 9c91ff1f a491ff1f  ................
 1fff91b0 a491ff1f ac91ff1f ac91ff1f b491ff1f  ................
 1fff91c0 b491ff1f bc91ff1f bc91ff1f c491ff1f  ................
 1fff91d0 c491ff1f 00000200 ffffffff           ............    
Contents of section .ARM.attributes:
 0000 41290000 00616561 62690001 1f000000  A)...aeabi......
 0010 0537452d 4d00060d 074d0902 12041401  .7E-M....M......
 0020 15011703 18011a01 2201               ........".      
Contents of section .comment:
 0000 4743433a 2028474e 5520546f 6f6c7320  GCC: (GNU Tools 
 0010 666f7220 41524d20 456d6265 64646564  for ARM Embedded
 0020 2050726f 63657373 6f727329 20352e34   Processors) 5.4
 0030 2e312032 30313630 39313920 2872656c  .1 20160919 (rel
 0040 65617365 29205b41 524d2f65 6d626564  ease) [ARM/embed
 0050 6465642d 352d6272 616e6368 20726576  ded-5-branch rev
 0060 6973696f 6e203234 30343936 5d00      ision 240496].  
Contents of section .debug_frame:
 0000 0c000000 ffffffff 0100027c 0e0c0d00  ...........|....
 0010 0c000000 00000000 e4290000 0a000000  .........)......
 0020 0c000000 ffffffff 0100027c 0e0c0d00  ...........|....
 0030 0c000000 20000000 ac2e0000 0c000000  .... ...........
 0040 0c000000 ffffffff 0100027c 0e0c0d00  ...........|....
 0050 0c000000 40000000 b82e0000 0c000000  ....@...........
 0060 0c000000 ffffffff 0100027c 0e0c0d00  ...........|....
 0070 18000000 60000000 c42e0000 50000000  ....`.......P...
 0080 410e1084 04850386 028e0100 0c000000  A...............
 0090 ffffffff 0100027c 0e0c0d00 0c000000  .......|........
 00a0 8c000000 142f0000 10000000 0c000000  ...../..........
 00b0 8c000000 00000000 10000000 0c000000  ................
 00c0 ffffffff 0100027c 0e0c0d00 44000000  .......|....D...
 00d0 bc000000 242f0000 70050000 420e2484  ....$/..p...B.$.
 00e0 09850886 07870688 0589048a 038b028e  ................
 00f0 01440e30 02c40a0e 24420b45 0a0e2442  .D.0....$B.E..$B
 0100 0b560a0e 24420b4b 0a0e2442 0b02a50a  .V..$B.K..$B....
 0110 0e24420b 0c000000 ffffffff 0100027c  .$B............|
 0120 0e0c0d00 0c000000 14010000 94340000  .............4..
 0130 02000000 0c000000 14010000 98340000  .............4..
 0140 02000000 0c000000 ffffffff 0100027c  ...............|
 0150 0e0c0d00 18000000 44010000 9c340000  ........D....4..
 0160 24000000 410e1083 04840385 028e0100  $...A...........
 0170 0c000000 ffffffff 0100027c 0e0c0d00  ...........|....
 0180 20000000 70010000 c0340000 a4000000   ...p....4......
 0190 420e2084 08850786 06870588 0489038a  B. .............
 01a0 028e0100 0c000000 ffffffff 0100027c  ...............|
 01b0 0e0c0d00 0c000000 a4010000 64350000  ............d5..
 01c0 14000000 2c000000 a4010000 00000000  ....,...........
 01d0 d8000000 420e2484 09850886 07870688  ....B.$.........
 01e0 0589048a 038b028e 01420e38 740a0e24  .........B.8t..$
 01f0 420b0000 0c000000 ffffffff 0100027c  B..............|
 0200 0e0c0d00 0c000000 f4010000 78350000  ............x5..
 0210 0c000000 0c000000 ffffffff 0100027c  ...............|
 0220 0e0c0d00 20000000 14020000 84350000  .... ........5..
 0230 28000000 410e1083 04840385 028e014d  (...A..........M
 0240 cec5c4c3 0e000000 0c000000 ffffffff  ................
 0250 0100027c 0e0c0d00 1c000000 48020000  ...|........H...
 0260 ac350000 9c000000 410e1883 06840585  .5......A.......
 0270 04860387 028e0100 40000000 48020000  ........@...H...
 0280 48360000 d0010000 440e1884 06850586  H6......D.......
 0290 04870388 028e0102 42cec8c7 c6c5c40e  ........B.......
 02a0 00430e18 84068505 86048703 88028e01  .C..............
 02b0 610ac4c5 c6c7c8ce 0e00420b 0c000000  a.........B.....
 02c0 ffffffff 0100027c 0e0c0d00 20000000  .......|.... ...
 02d0 bc020000 00000000 1a000000 410e1083  ............A...
 02e0 04840385 028e014a cec5c4c3 0e000000  .......J........
 02f0 20000000 bc020000 00000000 88000000   ...............
 0300 460e1084 04850386 028e0179 cec6c5c4  F..........y....
 0310 0e000000                             ....            

Disassembly of section .text:

00000000 <_VectorsFlash>:
       0:	00 80 00 20 bd 01 00 00 31 0b 00 00 e9 0a 00 00     ... ....1.......
      10:	e9 0a 00 00 e9 0a 00 00 e9 0a 00 00 e9 0a 00 00     ................
      20:	e9 0a 00 00 e9 0a 00 00 e9 0a 00 00 31 0b 00 00     ............1...
      30:	31 0b 00 00 e9 0a 00 00 7d 22 00 00 b9 24 00 00     1.......}"...$..
      40:	31 0b 00 00 31 0b 00 00 31 0b 00 00 31 0b 00 00     1...1...1...1...
      50:	31 0b 00 00 31 0b 00 00 31 0b 00 00 31 0b 00 00     1...1...1...1...
      60:	31 0b 00 00 31 0b 00 00 31 0b 00 00 31 0b 00 00     1...1...1...1...
      70:	31 0b 00 00 31 0b 00 00 31 0b 00 00 31 0b 00 00     1...1...1...1...
      80:	31 0b 00 00 31 0b 00 00 31 0b 00 00 31 0b 00 00     1...1...1...1...
      90:	31 0b 00 00 31 0b 00 00 31 0b 00 00 31 0b 00 00     1...1...1...1...
      a0:	31 0b 00 00 31 0b 00 00 31 0b 00 00 31 0b 00 00     1...1...1...1...
      b0:	31 0b 00 00 31 0b 00 00 31 0b 00 00 31 0b 00 00     1...1...1...1...
      c0:	31 0b 00 00 31 0b 00 00 31 0b 00 00 31 0b 00 00     1...1...1...1...
      d0:	31 0b 00 00 31 0b 00 00 31 0b 00 00 31 0b 00 00     1...1...1...1...
      e0:	31 0b 00 00 31 0b 00 00 31 0b 00 00 31 0b 00 00     1...1...1...1...
      f0:	31 0b 00 00 d5 25 00 00 31 0b 00 00 01 27 00 00     1....%..1....'..
     100:	31 0b 00 00 2d 28 00 00 31 0b 00 00 31 0b 00 00     1...-(..1...1...
     110:	31 0b 00 00 31 0b 00 00 31 0b 00 00 31 0b 00 00     1...1...1...1...
     120:	31 0b 00 00 31 0b 00 00 31 0b 00 00 31 0b 00 00     1...1...1...1...
     130:	31 0b 00 00 31 0b 00 00 31 0b 00 00 31 0b 00 00     1...1...1...1...
     140:	31 0b 00 00 31 0b 00 00 31 0b 00 00 31 0b 00 00     1...1...1...1...
     150:	31 0b 00 00 31 0b 00 00 31 0b 00 00 31 0b 00 00     1...1...1...1...
     160:	31 0b 00 00 99 11 00 00 31 0b 00 00 31 0b 00 00     1.......1...1...
     170:	31 0b 00 00 31 0b 00 00 31 0b 00 00 31 0b 00 00     1...1...1...1...
     180:	31 0b 00 00 31 0b 00 00 31 0b 00 00 31 0b 00 00     1...1...1...1...
     190:	31 0b 00 00 31 0b 00 00 31 0b 00 00 31 0b 00 00     1...1...1...1...
     1a0:	31 0b 00 00 31 0b 00 00 31 0b 00 00 31 0b 00 00     1...1...1...1...
     1b0:	31 0b 00 00 31 0b 00 00 31 0b 00 00                 1...1...1...

000001bc <ResetHandler>:
     1bc:	4b56      	ldr	r3, [pc, #344]	; (318 <ResetHandler+0x15c>)
     1be:	f24c 5220 	movw	r2, #50464	; 0xc520
     1c2:	b510      	push	{r4, lr}
     1c4:	801a      	strh	r2, [r3, #0]
     1c6:	f64d 1228 	movw	r2, #55592	; 0xd928
     1ca:	801a      	strh	r2, [r3, #0]
     1cc:	bf00      	nop
     1ce:	bf00      	nop
     1d0:	f000 fcb2 	bl	b38 <startup_early_hook>
     1d4:	4b51      	ldr	r3, [pc, #324]	; (31c <ResetHandler+0x160>)
     1d6:	f04f 6210 	mov.w	r2, #150994944	; 0x9000000
     1da:	601a      	str	r2, [r3, #0]
     1dc:	4a50      	ldr	r2, [pc, #320]	; (320 <ResetHandler+0x164>)
     1de:	609a      	str	r2, [r3, #8]
     1e0:	4a50      	ldr	r2, [pc, #320]	; (324 <ResetHandler+0x168>)
     1e2:	60da      	str	r2, [r3, #12]
     1e4:	4a50      	ldr	r2, [pc, #320]	; (328 <ResetHandler+0x16c>)
     1e6:	6813      	ldr	r3, [r2, #0]
     1e8:	f413 7380 	ands.w	r3, r3, #256	; 0x100
     1ec:	d104      	bne.n	1f8 <ResetHandler+0x3c>
     1ee:	494f      	ldr	r1, [pc, #316]	; (32c <ResetHandler+0x170>)
     1f0:	600b      	str	r3, [r1, #0]
     1f2:	f44f 53a8 	mov.w	r3, #5376	; 0x1500
     1f6:	6013      	str	r3, [r2, #0]
     1f8:	4b4d      	ldr	r3, [pc, #308]	; (330 <ResetHandler+0x174>)
     1fa:	781a      	ldrb	r2, [r3, #0]
     1fc:	0711      	lsls	r1, r2, #28
     1fe:	d503      	bpl.n	208 <ResetHandler+0x4c>
     200:	781a      	ldrb	r2, [r3, #0]
     202:	f042 0208 	orr.w	r2, r2, #8
     206:	701a      	strb	r2, [r3, #0]
     208:	4b4a      	ldr	r3, [pc, #296]	; (334 <ResetHandler+0x178>)
     20a:	494b      	ldr	r1, [pc, #300]	; (338 <ResetHandler+0x17c>)
     20c:	222a      	movs	r2, #42	; 0x2a
     20e:	701a      	strb	r2, [r3, #0]
     210:	4a4a      	ldr	r2, [pc, #296]	; (33c <ResetHandler+0x180>)
     212:	4b4b      	ldr	r3, [pc, #300]	; (340 <ResetHandler+0x184>)
     214:	428b      	cmp	r3, r1
     216:	d204      	bcs.n	222 <ResetHandler+0x66>
     218:	f852 0f04 	ldr.w	r0, [r2, #4]!
     21c:	f843 0b04 	str.w	r0, [r3], #4
     220:	e7f8      	b.n	214 <ResetHandler+0x58>
     222:	4b48      	ldr	r3, [pc, #288]	; (344 <ResetHandler+0x188>)
     224:	4948      	ldr	r1, [pc, #288]	; (348 <ResetHandler+0x18c>)
     226:	2200      	movs	r2, #0
     228:	428b      	cmp	r3, r1
     22a:	d202      	bcs.n	232 <ResetHandler+0x76>
     22c:	f843 2b04 	str.w	r2, [r3], #4
     230:	e7fa      	b.n	228 <ResetHandler+0x6c>
     232:	4946      	ldr	r1, [pc, #280]	; (34c <ResetHandler+0x190>)
     234:	4a46      	ldr	r2, [pc, #280]	; (350 <ResetHandler+0x194>)
     236:	2300      	movs	r3, #0
     238:	f852 0023 	ldr.w	r0, [r2, r3, lsl #2]
     23c:	f841 0023 	str.w	r0, [r1, r3, lsl #2]
     240:	3301      	adds	r3, #1
     242:	2b6f      	cmp	r3, #111	; 0x6f
     244:	d1f8      	bne.n	238 <ResetHandler+0x7c>
     246:	4b43      	ldr	r3, [pc, #268]	; (354 <ResetHandler+0x198>)
     248:	4a43      	ldr	r2, [pc, #268]	; (358 <ResetHandler+0x19c>)
     24a:	2180      	movs	r1, #128	; 0x80
     24c:	f803 1b01 	strb.w	r1, [r3], #1
     250:	4293      	cmp	r3, r2
     252:	d1fb      	bne.n	24c <ResetHandler+0x90>
     254:	4b41      	ldr	r3, [pc, #260]	; (35c <ResetHandler+0x1a0>)
     256:	4a3d      	ldr	r2, [pc, #244]	; (34c <ResetHandler+0x190>)
     258:	601a      	str	r2, [r3, #0]
     25a:	4b41      	ldr	r3, [pc, #260]	; (360 <ResetHandler+0x1a4>)
     25c:	228a      	movs	r2, #138	; 0x8a
     25e:	701a      	strb	r2, [r3, #0]
     260:	f5a3 5380 	sub.w	r3, r3, #4096	; 0x1000
     264:	2224      	movs	r2, #36	; 0x24
     266:	705a      	strb	r2, [r3, #1]
     268:	22a0      	movs	r2, #160	; 0xa0
     26a:	701a      	strb	r2, [r3, #0]
     26c:	799a      	ldrb	r2, [r3, #6]
     26e:	0792      	lsls	r2, r2, #30
     270:	d5fc      	bpl.n	26c <ResetHandler+0xb0>
     272:	799a      	ldrb	r2, [r3, #6]
     274:	06d4      	lsls	r4, r2, #27
     276:	d4fc      	bmi.n	272 <ResetHandler+0xb6>
     278:	4a3a      	ldr	r2, [pc, #232]	; (364 <ResetHandler+0x1a8>)
     27a:	7993      	ldrb	r3, [r2, #6]
     27c:	f003 030c 	and.w	r3, r3, #12
     280:	2b08      	cmp	r3, #8
     282:	4b38      	ldr	r3, [pc, #224]	; (364 <ResetHandler+0x1a8>)
     284:	d1f9      	bne.n	27a <ResetHandler+0xbe>
     286:	2203      	movs	r2, #3
     288:	711a      	strb	r2, [r3, #4]
     28a:	2246      	movs	r2, #70	; 0x46
     28c:	715a      	strb	r2, [r3, #5]
     28e:	799a      	ldrb	r2, [r3, #6]
     290:	0690      	lsls	r0, r2, #26
     292:	d5fc      	bpl.n	28e <ResetHandler+0xd2>
     294:	4a33      	ldr	r2, [pc, #204]	; (364 <ResetHandler+0x1a8>)
     296:	7991      	ldrb	r1, [r2, #6]
     298:	4b32      	ldr	r3, [pc, #200]	; (364 <ResetHandler+0x1a8>)
     29a:	0649      	lsls	r1, r1, #25
     29c:	d5fb      	bpl.n	296 <ResetHandler+0xda>
     29e:	4a32      	ldr	r2, [pc, #200]	; (368 <ResetHandler+0x1ac>)
     2a0:	f04f 7182 	mov.w	r1, #17039360	; 0x1040000
     2a4:	6011      	str	r1, [r2, #0]
     2a6:	2109      	movs	r1, #9
     2a8:	6051      	str	r1, [r2, #4]
     2aa:	2220      	movs	r2, #32
     2ac:	701a      	strb	r2, [r3, #0]
     2ae:	799a      	ldrb	r2, [r3, #6]
     2b0:	f002 020c 	and.w	r2, r2, #12
     2b4:	2a0c      	cmp	r2, #12
     2b6:	d1fa      	bne.n	2ae <ResetHandler+0xf2>
     2b8:	4b2c      	ldr	r3, [pc, #176]	; (36c <ResetHandler+0x1b0>)
     2ba:	4a2d      	ldr	r2, [pc, #180]	; (370 <ResetHandler+0x1b4>)
     2bc:	601a      	str	r2, [r3, #0]
     2be:	4b2d      	ldr	r3, [pc, #180]	; (374 <ResetHandler+0x1b8>)
     2c0:	4a2d      	ldr	r2, [pc, #180]	; (378 <ResetHandler+0x1bc>)
     2c2:	601a      	str	r2, [r3, #0]
     2c4:	2200      	movs	r2, #0
     2c6:	605a      	str	r2, [r3, #4]
     2c8:	2207      	movs	r2, #7
     2ca:	f843 2c04 	str.w	r2, [r3, #-4]
     2ce:	4a2b      	ldr	r2, [pc, #172]	; (37c <ResetHandler+0x1c0>)
     2d0:	f8c3 2d0c 	str.w	r2, [r3, #3340]	; 0xd0c
     2d4:	b662      	cpsie	i
     2d6:	f000 fd07 	bl	ce8 <_init_Teensyduino_internal_>
     2da:	4b14      	ldr	r3, [pc, #80]	; (32c <ResetHandler+0x170>)
     2dc:	681b      	ldr	r3, [r3, #0]
     2de:	07da      	lsls	r2, r3, #31
     2e0:	d505      	bpl.n	2ee <ResetHandler+0x132>
     2e2:	4827      	ldr	r0, [pc, #156]	; (380 <ResetHandler+0x1c4>)
     2e4:	f000 fcee 	bl	cc4 <rtc_set>
     2e8:	4b26      	ldr	r3, [pc, #152]	; (384 <ResetHandler+0x1c8>)
     2ea:	4a27      	ldr	r2, [pc, #156]	; (388 <ResetHandler+0x1cc>)
     2ec:	601a      	str	r2, [r3, #0]
     2ee:	4b27      	ldr	r3, [pc, #156]	; (38c <ResetHandler+0x1d0>)
     2f0:	781b      	ldrb	r3, [r3, #0]
     2f2:	065b      	lsls	r3, r3, #25
     2f4:	d509      	bpl.n	30a <ResetHandler+0x14e>
     2f6:	4c23      	ldr	r4, [pc, #140]	; (384 <ResetHandler+0x1c8>)
     2f8:	4b23      	ldr	r3, [pc, #140]	; (388 <ResetHandler+0x1cc>)
     2fa:	6822      	ldr	r2, [r4, #0]
     2fc:	429a      	cmp	r2, r3
     2fe:	d104      	bne.n	30a <ResetHandler+0x14e>
     300:	481f      	ldr	r0, [pc, #124]	; (380 <ResetHandler+0x1c4>)
     302:	f000 fcdf 	bl	cc4 <rtc_set>
     306:	2300      	movs	r3, #0
     308:	6023      	str	r3, [r4, #0]
     30a:	f002 fddb 	bl	2ec4 <__libc_init_array>
     30e:	f000 fc19 	bl	b44 <startup_late_hook>
     312:	f000 fb11 	bl	938 <main>
     316:	e7fe      	b.n	316 <ResetHandler+0x15a>
     318:	4005200e 	.word	0x4005200e
     31c:	40048030 	.word	0x40048030
     320:	00043f82 	.word	0x00043f82
     324:	2b000001 	.word	0x2b000001
     328:	4003d010 	.word	0x4003d010
     32c:	4003d014 	.word	0x4003d014
     330:	4007d002 	.word	0x4007d002
     334:	4007e000 	.word	0x4007e000
     338:	1fff91dc 	.word	0x1fff91dc
     33c:	00003a0c 	.word	0x00003a0c
     340:	1fff8720 	.word	0x1fff8720
     344:	1fff91dc 	.word	0x1fff91dc
     348:	1fff980c 	.word	0x1fff980c
     34c:	1fff8200 	.word	0x1fff8200
     350:	00000000 	.word	0x00000000
     354:	e000e400 	.word	0xe000e400
     358:	e000e45f 	.word	0xe000e45f
     35c:	e000ed08 	.word	0xe000ed08
     360:	40065000 	.word	0x40065000
     364:	40064000 	.word	0x40064000
     368:	40048044 	.word	0x40048044
     36c:	40048004 	.word	0x40048004
     370:	000510c0 	.word	0x000510c0
     374:	e000e014 	.word	0xe000e014
     378:	0001d4bf 	.word	0x0001d4bf
     37c:	20200000 	.word	0x20200000
     380:	5a9c006e 	.word	0x5a9c006e
     384:	4003e01c 	.word	0x4003e01c
     388:	5a94c3a5 	.word	0x5a94c3a5
     38c:	4007f000 	.word	0x4007f000
     390:	ffffffff 	.word	0xffffffff
     394:	ffffffff 	.word	0xffffffff
     398:	ffffffff 	.word	0xffffffff
     39c:	ffffffff 	.word	0xffffffff
     3a0:	ffffffff 	.word	0xffffffff
     3a4:	ffffffff 	.word	0xffffffff
     3a8:	ffffffff 	.word	0xffffffff
     3ac:	ffffffff 	.word	0xffffffff
     3b0:	ffffffff 	.word	0xffffffff
     3b4:	ffffffff 	.word	0xffffffff
     3b8:	ffffffff 	.word	0xffffffff
     3bc:	ffffffff 	.word	0xffffffff
     3c0:	ffffffff 	.word	0xffffffff
     3c4:	ffffffff 	.word	0xffffffff
     3c8:	ffffffff 	.word	0xffffffff
     3cc:	ffffffff 	.word	0xffffffff
     3d0:	ffffffff 	.word	0xffffffff
     3d4:	ffffffff 	.word	0xffffffff
     3d8:	ffffffff 	.word	0xffffffff
     3dc:	ffffffff 	.word	0xffffffff
     3e0:	ffffffff 	.word	0xffffffff
     3e4:	ffffffff 	.word	0xffffffff
     3e8:	ffffffff 	.word	0xffffffff
     3ec:	ffffffff 	.word	0xffffffff
     3f0:	ffffffff 	.word	0xffffffff
     3f4:	ffffffff 	.word	0xffffffff
     3f8:	ffffffff 	.word	0xffffffff
     3fc:	ffffffff 	.word	0xffffffff

00000400 <flashconfigbytes>:
     400:	ffffffff ffffffff ffffffff fffff9de     ................

00000410 <__do_global_dtors_aux>:
     410:	b510      	push	{r4, lr}
     412:	4c05      	ldr	r4, [pc, #20]	; (428 <__do_global_dtors_aux+0x18>)
     414:	7823      	ldrb	r3, [r4, #0]
     416:	b933      	cbnz	r3, 426 <__do_global_dtors_aux+0x16>
     418:	4b04      	ldr	r3, [pc, #16]	; (42c <__do_global_dtors_aux+0x1c>)
     41a:	b113      	cbz	r3, 422 <__do_global_dtors_aux+0x12>
     41c:	4804      	ldr	r0, [pc, #16]	; (430 <__do_global_dtors_aux+0x20>)
     41e:	f3af 8000 	nop.w
     422:	2301      	movs	r3, #1
     424:	7023      	strb	r3, [r4, #0]
     426:	bd10      	pop	{r4, pc}
     428:	1fff91dc 	.word	0x1fff91dc
     42c:	00000000 	.word	0x00000000
     430:	00003a08 	.word	0x00003a08

00000434 <frame_dummy>:
     434:	4b08      	ldr	r3, [pc, #32]	; (458 <frame_dummy+0x24>)
     436:	b510      	push	{r4, lr}
     438:	b11b      	cbz	r3, 442 <frame_dummy+0xe>
     43a:	4908      	ldr	r1, [pc, #32]	; (45c <frame_dummy+0x28>)
     43c:	4808      	ldr	r0, [pc, #32]	; (460 <frame_dummy+0x2c>)
     43e:	f3af 8000 	nop.w
     442:	4808      	ldr	r0, [pc, #32]	; (464 <frame_dummy+0x30>)
     444:	6803      	ldr	r3, [r0, #0]
     446:	b903      	cbnz	r3, 44a <frame_dummy+0x16>
     448:	bd10      	pop	{r4, pc}
     44a:	4b07      	ldr	r3, [pc, #28]	; (468 <frame_dummy+0x34>)
     44c:	2b00      	cmp	r3, #0
     44e:	d0fb      	beq.n	448 <frame_dummy+0x14>
     450:	e8bd 4010 	ldmia.w	sp!, {r4, lr}
     454:	4718      	bx	r3
     456:	bf00      	nop
     458:	00000000 	.word	0x00000000
     45c:	1fff91e0 	.word	0x1fff91e0
     460:	00003a08 	.word	0x00003a08
     464:	1fff91dc 	.word	0x1fff91dc
     468:	00000000 	.word	0x00000000

0000046c <SensorNode::SensorNode(unsigned char)>:
     46c:	f8c0 10c0 	str.w	r1, [r0, #192]	; 0xc0
     470:	4770      	bx	lr
     472:	bf00      	nop

00000474 <SensorNode::NeedsPulseHandling()>:
     474:	f990 3000 	ldrsb.w	r3, [r0]
     478:	4a08      	ldr	r2, [pc, #32]	; (49c <SensorNode::NeedsPulseHandling()+0x28>)
     47a:	f990 0001 	ldrsb.w	r0, [r0, #1]
     47e:	3b01      	subs	r3, #1
     480:	fb82 2103 	smull	r2, r1, r2, r3
     484:	17da      	asrs	r2, r3, #31
     486:	ebc2 02a1 	rsb	r2, r2, r1, asr #2
     48a:	eb02 0282 	add.w	r2, r2, r2, lsl #2
     48e:	eba3 0342 	sub.w	r3, r3, r2, lsl #1
     492:	b25b      	sxtb	r3, r3
     494:	1ac0      	subs	r0, r0, r3
     496:	bf18      	it	ne
     498:	2001      	movne	r0, #1
     49a:	4770      	bx	lr
     49c:	66666667 	.word	0x66666667

000004a0 <SensorNode::Init()>:
     4a0:	b538      	push	{r3, r4, r5, lr}
     4a2:	4604      	mov	r4, r0
     4a4:	4d24      	ldr	r5, [pc, #144]	; (538 <SensorNode::Init()+0x98>)
     4a6:	4825      	ldr	r0, [pc, #148]	; (53c <SensorNode::Init()+0x9c>)
     4a8:	210e      	movs	r1, #14
     4aa:	f001 fcfd 	bl	1ea8 <usb_serial_write>
     4ae:	f8d4 10c0 	ldr.w	r1, [r4, #192]	; 0xc0
     4b2:	4628      	mov	r0, r5
     4b4:	f000 fa7c 	bl	9b0 <Print::print(long)>
     4b8:	f894 00c0 	ldrb.w	r0, [r4, #192]	; 0xc0
     4bc:	2100      	movs	r1, #0
     4be:	f000 fd07 	bl	ed0 <pinMode>
     4c2:	2300      	movs	r3, #0
     4c4:	2200      	movs	r2, #0
     4c6:	2101      	movs	r1, #1
     4c8:	7021      	strb	r1, [r4, #0]
     4ca:	7063      	strb	r3, [r4, #1]
     4cc:	60e3      	str	r3, [r4, #12]
     4ce:	6063      	str	r3, [r4, #4]
     4d0:	60a3      	str	r3, [r4, #8]
     4d2:	61e3      	str	r3, [r4, #28]
     4d4:	6163      	str	r3, [r4, #20]
     4d6:	61a3      	str	r3, [r4, #24]
     4d8:	62e3      	str	r3, [r4, #44]	; 0x2c
     4da:	6263      	str	r3, [r4, #36]	; 0x24
     4dc:	62a3      	str	r3, [r4, #40]	; 0x28
     4de:	63e3      	str	r3, [r4, #60]	; 0x3c
     4e0:	6363      	str	r3, [r4, #52]	; 0x34
     4e2:	63a3      	str	r3, [r4, #56]	; 0x38
     4e4:	64e3      	str	r3, [r4, #76]	; 0x4c
     4e6:	6463      	str	r3, [r4, #68]	; 0x44
     4e8:	64a3      	str	r3, [r4, #72]	; 0x48
     4ea:	65e3      	str	r3, [r4, #92]	; 0x5c
     4ec:	6563      	str	r3, [r4, #84]	; 0x54
     4ee:	65a3      	str	r3, [r4, #88]	; 0x58
     4f0:	66e3      	str	r3, [r4, #108]	; 0x6c
     4f2:	6663      	str	r3, [r4, #100]	; 0x64
     4f4:	66a3      	str	r3, [r4, #104]	; 0x68
     4f6:	67e3      	str	r3, [r4, #124]	; 0x7c
     4f8:	6763      	str	r3, [r4, #116]	; 0x74
     4fa:	67a3      	str	r3, [r4, #120]	; 0x78
     4fc:	f8c4 308c 	str.w	r3, [r4, #140]	; 0x8c
     500:	f8c4 3084 	str.w	r3, [r4, #132]	; 0x84
     504:	f8c4 20a4 	str.w	r2, [r4, #164]	; 0xa4
     508:	f8c4 20a8 	str.w	r2, [r4, #168]	; 0xa8
     50c:	f8c4 20ac 	str.w	r2, [r4, #172]	; 0xac
     510:	f8c4 20b0 	str.w	r2, [r4, #176]	; 0xb0
     514:	2109      	movs	r1, #9
     516:	f8c4 3088 	str.w	r3, [r4, #136]	; 0x88
     51a:	4809      	ldr	r0, [pc, #36]	; (540 <SensorNode::Init()+0xa0>)
     51c:	f8c4 309c 	str.w	r3, [r4, #156]	; 0x9c
     520:	f8c4 3094 	str.w	r3, [r4, #148]	; 0x94
     524:	f8c4 3098 	str.w	r3, [r4, #152]	; 0x98
     528:	f001 fcbe 	bl	1ea8 <usb_serial_write>
     52c:	4628      	mov	r0, r5
     52e:	e8bd 4038 	ldmia.w	sp!, {r3, r4, r5, lr}
     532:	f000 bab7 	b.w	aa4 <Print::println()>
     536:	bf00      	nop
     538:	1fff88e4 	.word	0x1fff88e4
     53c:	00003818 	.word	0x00003818
     540:	00003828 	.word	0x00003828

00000544 <SensorNode::~SensorNode()>:
     544:	4770      	bx	lr
     546:	bf00      	nop

00000548 <SensorNode::GetPin()>:
     548:	f890 00c0 	ldrb.w	r0, [r0, #192]	; 0xc0
     54c:	4770      	bx	lr
     54e:	bf00      	nop

00000550 <SensorNode::RisingEdge(unsigned long)>:
     550:	7803      	ldrb	r3, [r0, #0]
     552:	4a0b      	ldr	r2, [pc, #44]	; (580 <SensorNode::RisingEdge(unsigned long)+0x30>)
     554:	3301      	adds	r3, #1
     556:	b25b      	sxtb	r3, r3
     558:	b410      	push	{r4}
     55a:	fb82 2403 	smull	r2, r4, r2, r3
     55e:	17da      	asrs	r2, r3, #31
     560:	ebc2 02a4 	rsb	r2, r2, r4, asr #2
     564:	eb02 0282 	add.w	r2, r2, r2, lsl #2
     568:	eba3 0342 	sub.w	r3, r3, r2, lsl #1
     56c:	b25b      	sxtb	r3, r3
     56e:	eb00 1203 	add.w	r2, r0, r3, lsl #4
     572:	2400      	movs	r4, #0
     574:	7003      	strb	r3, [r0, #0]
     576:	7414      	strb	r4, [r2, #16]
     578:	6051      	str	r1, [r2, #4]
     57a:	bc10      	pop	{r4}
     57c:	4770      	bx	lr
     57e:	bf00      	nop
     580:	66666667 	.word	0x66666667

00000584 <SensorNode::FallingEdge(unsigned long)>:
     584:	f990 2000 	ldrsb.w	r2, [r0]
     588:	eb00 1002 	add.w	r0, r0, r2, lsl #4
     58c:	2300      	movs	r3, #0
     58e:	6081      	str	r1, [r0, #8]
     590:	7403      	strb	r3, [r0, #16]
     592:	4770      	bx	lr

00000594 <SensorNode::PulseHandler()>:
     594:	b4f0      	push	{r4, r5, r6, r7}
     596:	f990 3001 	ldrsb.w	r3, [r0, #1]
     59a:	4c21      	ldr	r4, [pc, #132]	; (620 <SensorNode::PulseHandler()+0x8c>)
     59c:	eb00 1103 	add.w	r1, r0, r3, lsl #4
     5a0:	460d      	mov	r5, r1
     5a2:	688a      	ldr	r2, [r1, #8]
     5a4:	6849      	ldr	r1, [r1, #4]
     5a6:	3301      	adds	r3, #1
     5a8:	1a52      	subs	r2, r2, r1
     5aa:	b25b      	sxtb	r3, r3
     5ac:	60ea      	str	r2, [r5, #12]
     5ae:	fb84 1703 	smull	r1, r7, r4, r3
     5b2:	17d9      	asrs	r1, r3, #31
     5b4:	f990 6000 	ldrsb.w	r6, [r0]
     5b8:	ebc1 01a7 	rsb	r1, r1, r7, asr #2
     5bc:	eb01 0181 	add.w	r1, r1, r1, lsl #2
     5c0:	f6a2 37b8 	subw	r7, r2, #3000	; 0xbb8
     5c4:	3a78      	subs	r2, #120	; 0x78
     5c6:	f5b2 7f43 	cmp.w	r2, #780	; 0x30c
     5ca:	eb00 1606 	add.w	r6, r0, r6, lsl #4
     5ce:	eba3 0341 	sub.w	r3, r3, r1, lsl #1
     5d2:	f241 7170 	movw	r1, #6000	; 0x1770
     5d6:	bf8c      	ite	hi
     5d8:	2200      	movhi	r2, #0
     5da:	2201      	movls	r2, #1
     5dc:	428f      	cmp	r7, r1
     5de:	74b2      	strb	r2, [r6, #18]
     5e0:	bf8c      	ite	hi
     5e2:	2100      	movhi	r1, #0
     5e4:	2101      	movls	r1, #1
     5e6:	b25b      	sxtb	r3, r3
     5e8:	2701      	movs	r7, #1
     5ea:	2200      	movs	r2, #0
     5ec:	7471      	strb	r1, [r6, #17]
     5ee:	742f      	strb	r7, [r5, #16]
     5f0:	74ea      	strb	r2, [r5, #19]
     5f2:	7043      	strb	r3, [r0, #1]
     5f4:	b173      	cbz	r3, 614 <SensorNode::PulseHandler()+0x80>
     5f6:	3b01      	subs	r3, #1
     5f8:	fb84 2403 	smull	r2, r4, r4, r3
     5fc:	17da      	asrs	r2, r3, #31
     5fe:	ebc2 04a4 	rsb	r4, r2, r4, asr #2
     602:	eb04 0484 	add.w	r4, r4, r4, lsl #2
     606:	eba3 0444 	sub.w	r4, r3, r4, lsl #1
     60a:	eb00 1004 	add.w	r0, r0, r4, lsl #4
     60e:	3004      	adds	r0, #4
     610:	bcf0      	pop	{r4, r5, r6, r7}
     612:	4770      	bx	lr
     614:	2409      	movs	r4, #9
     616:	eb00 1004 	add.w	r0, r0, r4, lsl #4
     61a:	3004      	adds	r0, #4
     61c:	bcf0      	pop	{r4, r5, r6, r7}
     61e:	4770      	bx	lr
     620:	66666667 	.word	0x66666667

00000624 <SensorNode::CheckAndHandleSweep(unsigned char, unsigned char, unsigned long)>:
     624:	b570      	push	{r4, r5, r6, lr}
     626:	f990 4000 	ldrsb.w	r4, [r0]
     62a:	eb00 1404 	add.w	r4, r0, r4, lsl #4
     62e:	7c25      	ldrb	r5, [r4, #16]
     630:	b1dd      	cbz	r5, 66a <SensorNode::CheckAndHandleSweep(unsigned char, unsigned char, unsigned long)+0x46>
     632:	7ca5      	ldrb	r5, [r4, #18]
     634:	b1cd      	cbz	r5, 66a <SensorNode::CheckAndHandleSweep(unsigned char, unsigned char, unsigned long)+0x46>
     636:	7ce5      	ldrb	r5, [r4, #19]
     638:	b9bd      	cbnz	r5, 66a <SensorNode::CheckAndHandleSweep(unsigned char, unsigned char, unsigned long)+0x46>
     63a:	eb02 0241 	add.w	r2, r2, r1, lsl #1
     63e:	461e      	mov	r6, r3
     640:	2301      	movs	r3, #1
     642:	3228      	adds	r2, #40	; 0x28
     644:	74e3      	strb	r3, [r4, #19]
     646:	4605      	mov	r5, r0
     648:	6860      	ldr	r0, [r4, #4]
     64a:	eb05 0482 	add.w	r4, r5, r2, lsl #2
     64e:	f002 fa85 	bl	2b5c <__aeabi_ui2f>
     652:	4605      	mov	r5, r0
     654:	4630      	mov	r0, r6
     656:	f002 fa81 	bl	2b5c <__aeabi_ui2f>
     65a:	4904      	ldr	r1, [pc, #16]	; (66c <SensorNode::CheckAndHandleSweep(unsigned char, unsigned char, unsigned long)+0x48>)
     65c:	f002 fad6 	bl	2c0c <__aeabi_fmul>
     660:	4601      	mov	r1, r0
     662:	4628      	mov	r0, r5
     664:	f002 f9c8 	bl	29f8 <__aeabi_fsub>
     668:	6060      	str	r0, [r4, #4]
     66a:	bd70      	pop	{r4, r5, r6, pc}
     66c:	371e232a 	.word	0x371e232a

00000670 <InitTimer()>:
     670:	b4f0      	push	{r4, r5, r6, r7}
     672:	4a08      	ldr	r2, [pc, #32]	; (694 <InitTimer()+0x24>)
     674:	4e08      	ldr	r6, [pc, #32]	; (698 <InitTimer()+0x28>)
     676:	6813      	ldr	r3, [r2, #0]
     678:	4c08      	ldr	r4, [pc, #32]	; (69c <InitTimer()+0x2c>)
     67a:	4909      	ldr	r1, [pc, #36]	; (6a0 <InitTimer()+0x30>)
     67c:	f04f 37ff 	mov.w	r7, #4294967295
     680:	2500      	movs	r5, #0
     682:	f443 0300 	orr.w	r3, r3, #8388608	; 0x800000
     686:	2001      	movs	r0, #1
     688:	6013      	str	r3, [r2, #0]
     68a:	6037      	str	r7, [r6, #0]
     68c:	6025      	str	r5, [r4, #0]
     68e:	6008      	str	r0, [r1, #0]
     690:	bcf0      	pop	{r4, r5, r6, r7}
     692:	4770      	bx	lr
     694:	4004803c 	.word	0x4004803c
     698:	40037100 	.word	0x40037100
     69c:	40037000 	.word	0x40037000
     6a0:	40037108 	.word	0x40037108

000006a4 <Interrupt0Change()>:
     6a4:	4a06      	ldr	r2, [pc, #24]	; (6c0 <Interrupt0Change()+0x1c>)
     6a6:	4b07      	ldr	r3, [pc, #28]	; (6c4 <Interrupt0Change()+0x20>)
     6a8:	6811      	ldr	r1, [r2, #0]
     6aa:	681b      	ldr	r3, [r3, #0]
     6ac:	4806      	ldr	r0, [pc, #24]	; (6c8 <Interrupt0Change()+0x24>)
     6ae:	071b      	lsls	r3, r3, #28
     6b0:	ea6f 0101 	mvn.w	r1, r1
     6b4:	d501      	bpl.n	6ba <Interrupt0Change()+0x16>
     6b6:	f7ff bf4b 	b.w	550 <SensorNode::RisingEdge(unsigned long)>
     6ba:	f7ff bf63 	b.w	584 <SensorNode::FallingEdge(unsigned long)>
     6be:	bf00      	nop
     6c0:	40037104 	.word	0x40037104
     6c4:	400ff090 	.word	0x400ff090
     6c8:	1fff9200 	.word	0x1fff9200

000006cc <Interrupt1Change()>:
     6cc:	4a06      	ldr	r2, [pc, #24]	; (6e8 <Interrupt1Change()+0x1c>)
     6ce:	4b07      	ldr	r3, [pc, #28]	; (6ec <Interrupt1Change()+0x20>)
     6d0:	6811      	ldr	r1, [r2, #0]
     6d2:	681b      	ldr	r3, [r3, #0]
     6d4:	4806      	ldr	r0, [pc, #24]	; (6f0 <Interrupt1Change()+0x24>)
     6d6:	06db      	lsls	r3, r3, #27
     6d8:	ea6f 0101 	mvn.w	r1, r1
     6dc:	d501      	bpl.n	6e2 <Interrupt1Change()+0x16>
     6de:	f7ff bf37 	b.w	550 <SensorNode::RisingEdge(unsigned long)>
     6e2:	f7ff bf4f 	b.w	584 <SensorNode::FallingEdge(unsigned long)>
     6e6:	bf00      	nop
     6e8:	40037104 	.word	0x40037104
     6ec:	400ff090 	.word	0x400ff090
     6f0:	1fff92c4 	.word	0x1fff92c4

000006f4 <Interrupt2Change()>:
     6f4:	4a06      	ldr	r2, [pc, #24]	; (710 <Interrupt2Change()+0x1c>)
     6f6:	4b07      	ldr	r3, [pc, #28]	; (714 <Interrupt2Change()+0x20>)
     6f8:	6811      	ldr	r1, [r2, #0]
     6fa:	681b      	ldr	r3, [r3, #0]
     6fc:	4806      	ldr	r0, [pc, #24]	; (718 <Interrupt2Change()+0x24>)
     6fe:	065b      	lsls	r3, r3, #25
     700:	ea6f 0101 	mvn.w	r1, r1
     704:	d501      	bpl.n	70a <Interrupt2Change()+0x16>
     706:	f7ff bf23 	b.w	550 <SensorNode::RisingEdge(unsigned long)>
     70a:	f7ff bf3b 	b.w	584 <SensorNode::FallingEdge(unsigned long)>
     70e:	bf00      	nop
     710:	40037104 	.word	0x40037104
     714:	400ff090 	.word	0x400ff090
     718:	1fff9388 	.word	0x1fff9388

0000071c <Interrupt3Change()>:
     71c:	4a06      	ldr	r2, [pc, #24]	; (738 <Interrupt3Change()+0x1c>)
     71e:	4b07      	ldr	r3, [pc, #28]	; (73c <Interrupt3Change()+0x20>)
     720:	6811      	ldr	r1, [r2, #0]
     722:	681b      	ldr	r3, [r3, #0]
     724:	4806      	ldr	r0, [pc, #24]	; (740 <Interrupt3Change()+0x24>)
     726:	061b      	lsls	r3, r3, #24
     728:	ea6f 0101 	mvn.w	r1, r1
     72c:	d501      	bpl.n	732 <Interrupt3Change()+0x16>
     72e:	f7ff bf0f 	b.w	550 <SensorNode::RisingEdge(unsigned long)>
     732:	f7ff bf27 	b.w	584 <SensorNode::FallingEdge(unsigned long)>
     736:	bf00      	nop
     738:	40037104 	.word	0x40037104
     73c:	400ff090 	.word	0x400ff090
     740:	1fff944c 	.word	0x1fff944c

00000744 <__tcf_0>:
     744:	b510      	push	{r4, lr}
     746:	4c09      	ldr	r4, [pc, #36]	; (76c <__tcf_0+0x28>)
     748:	f504 7013 	add.w	r0, r4, #588	; 0x24c
     74c:	f7ff fefa 	bl	544 <SensorNode::~SensorNode()>
     750:	f504 70c4 	add.w	r0, r4, #392	; 0x188
     754:	f7ff fef6 	bl	544 <SensorNode::~SensorNode()>
     758:	f104 00c4 	add.w	r0, r4, #196	; 0xc4
     75c:	f7ff fef2 	bl	544 <SensorNode::~SensorNode()>
     760:	4620      	mov	r0, r4
     762:	e8bd 4010 	ldmia.w	sp!, {r4, lr}
     766:	f7ff beed 	b.w	544 <SensorNode::~SensorNode()>
     76a:	bf00      	nop
     76c:	1fff9200 	.word	0x1fff9200

00000770 <ConfigureInterrupts()>:
     770:	b510      	push	{r4, lr}
     772:	4c16      	ldr	r4, [pc, #88]	; (7cc <ConfigureInterrupts()+0x5c>)
     774:	4816      	ldr	r0, [pc, #88]	; (7d0 <ConfigureInterrupts()+0x60>)
     776:	2112      	movs	r1, #18
     778:	f001 fb96 	bl	1ea8 <usb_serial_write>
     77c:	4620      	mov	r0, r4
     77e:	f7ff fee3 	bl	548 <SensorNode::GetPin()>
     782:	2204      	movs	r2, #4
     784:	4913      	ldr	r1, [pc, #76]	; (7d4 <ConfigureInterrupts()+0x64>)
     786:	f000 fa1d 	bl	bc4 <attachInterrupt>
     78a:	f104 00c4 	add.w	r0, r4, #196	; 0xc4
     78e:	f7ff fedb 	bl	548 <SensorNode::GetPin()>
     792:	2204      	movs	r2, #4
     794:	4910      	ldr	r1, [pc, #64]	; (7d8 <ConfigureInterrupts()+0x68>)
     796:	f000 fa15 	bl	bc4 <attachInterrupt>
     79a:	f504 70c4 	add.w	r0, r4, #392	; 0x188
     79e:	f7ff fed3 	bl	548 <SensorNode::GetPin()>
     7a2:	2204      	movs	r2, #4
     7a4:	490d      	ldr	r1, [pc, #52]	; (7dc <ConfigureInterrupts()+0x6c>)
     7a6:	f000 fa0d 	bl	bc4 <attachInterrupt>
     7aa:	f504 7013 	add.w	r0, r4, #588	; 0x24c
     7ae:	f7ff fecb 	bl	548 <SensorNode::GetPin()>
     7b2:	2204      	movs	r2, #4
     7b4:	490a      	ldr	r1, [pc, #40]	; (7e0 <ConfigureInterrupts()+0x70>)
     7b6:	f000 fa05 	bl	bc4 <attachInterrupt>
     7ba:	2108      	movs	r1, #8
     7bc:	4809      	ldr	r0, [pc, #36]	; (7e4 <ConfigureInterrupts()+0x74>)
     7be:	f001 fb73 	bl	1ea8 <usb_serial_write>
     7c2:	4809      	ldr	r0, [pc, #36]	; (7e8 <ConfigureInterrupts()+0x78>)
     7c4:	e8bd 4010 	ldmia.w	sp!, {r4, lr}
     7c8:	f000 b96c 	b.w	aa4 <Print::println()>
     7cc:	1fff9200 	.word	0x1fff9200
     7d0:	00003834 	.word	0x00003834
     7d4:	000006a5 	.word	0x000006a5
     7d8:	000006cd 	.word	0x000006cd
     7dc:	000006f5 	.word	0x000006f5
     7e0:	0000071d 	.word	0x0000071d
     7e4:	00003848 	.word	0x00003848
     7e8:	1fff88e4 	.word	0x1fff88e4

000007ec <Setup()>:
     7ec:	b510      	push	{r4, lr}
     7ee:	2101      	movs	r1, #1
     7f0:	4c10      	ldr	r4, [pc, #64]	; (834 <Setup()+0x48>)
     7f2:	200d      	movs	r0, #13
     7f4:	f000 fb6c 	bl	ed0 <pinMode>
     7f8:	f44f 60fa 	mov.w	r0, #2000	; 0x7d0
     7fc:	f000 fba4 	bl	f48 <delay>
     800:	4620      	mov	r0, r4
     802:	f7ff fe4d 	bl	4a0 <SensorNode::Init()>
     806:	f104 00c4 	add.w	r0, r4, #196	; 0xc4
     80a:	f7ff fe49 	bl	4a0 <SensorNode::Init()>
     80e:	f504 70c4 	add.w	r0, r4, #392	; 0x188
     812:	f7ff fe45 	bl	4a0 <SensorNode::Init()>
     816:	f504 7013 	add.w	r0, r4, #588	; 0x24c
     81a:	f7ff fe41 	bl	4a0 <SensorNode::Init()>
     81e:	2064      	movs	r0, #100	; 0x64
     820:	f000 fb92 	bl	f48 <delay>
     824:	f7ff ff24 	bl	670 <InitTimer()>
     828:	f7ff ffa2 	bl	770 <ConfigureInterrupts()>
     82c:	4b02      	ldr	r3, [pc, #8]	; (838 <Setup()+0x4c>)
     82e:	2220      	movs	r2, #32
     830:	601a      	str	r2, [r3, #0]
     832:	bd10      	pop	{r4, pc}
     834:	1fff9200 	.word	0x1fff9200
     838:	400ff084 	.word	0x400ff084

0000083c <Loop()>:
     83c:	4b36      	ldr	r3, [pc, #216]	; (918 <Loop()+0xdc>)
     83e:	e92d 47f0 	stmdb	sp!, {r4, r5, r6, r7, r8, r9, sl, lr}
     842:	4c36      	ldr	r4, [pc, #216]	; (91c <Loop()+0xe0>)
     844:	681f      	ldr	r7, [r3, #0]
     846:	f04f 0900 	mov.w	r9, #0
     84a:	43ff      	mvns	r7, r7
     84c:	f504 7644 	add.w	r6, r4, #784	; 0x310
     850:	4625      	mov	r5, r4
     852:	46c8      	mov	r8, r9
     854:	f04f 0a01 	mov.w	sl, #1
     858:	4628      	mov	r0, r5
     85a:	f7ff fe0b 	bl	474 <SensorNode::NeedsPulseHandling()>
     85e:	bb38      	cbnz	r0, 8b0 <Loop()+0x74>
     860:	35c4      	adds	r5, #196	; 0xc4
     862:	42ae      	cmp	r6, r5
     864:	d1f8      	bne.n	858 <Loop()+0x1c>
     866:	f1b8 0f00 	cmp.w	r8, #0
     86a:	d007      	beq.n	87c <Loop()+0x40>
     86c:	482c      	ldr	r0, [pc, #176]	; (920 <Loop()+0xe4>)
     86e:	f8d8 3000 	ldr.w	r3, [r8]
     872:	6801      	ldr	r1, [r0, #0]
     874:	1a59      	subs	r1, r3, r1
     876:	f5b1 7f16 	cmp.w	r1, #600	; 0x258
     87a:	d828      	bhi.n	8ce <Loop()+0x92>
     87c:	f8df 80b4 	ldr.w	r8, [pc, #180]	; 934 <Loop()+0xf8>
     880:	4f28      	ldr	r7, [pc, #160]	; (924 <Loop()+0xe8>)
     882:	4d29      	ldr	r5, [pc, #164]	; (928 <Loop()+0xec>)
     884:	f898 1000 	ldrb.w	r1, [r8]
     888:	783a      	ldrb	r2, [r7, #0]
     88a:	682b      	ldr	r3, [r5, #0]
     88c:	4620      	mov	r0, r4
     88e:	34c4      	adds	r4, #196	; 0xc4
     890:	f7ff fec8 	bl	624 <SensorNode::CheckAndHandleSweep(unsigned char, unsigned char, unsigned long)>
     894:	42a6      	cmp	r6, r4
     896:	d009      	beq.n	8ac <Loop()+0x70>
     898:	4620      	mov	r0, r4
     89a:	f898 1000 	ldrb.w	r1, [r8]
     89e:	783a      	ldrb	r2, [r7, #0]
     8a0:	682b      	ldr	r3, [r5, #0]
     8a2:	34c4      	adds	r4, #196	; 0xc4
     8a4:	f7ff febe 	bl	624 <SensorNode::CheckAndHandleSweep(unsigned char, unsigned char, unsigned long)>
     8a8:	42a6      	cmp	r6, r4
     8aa:	d1f5      	bne.n	898 <Loop()+0x5c>
     8ac:	e8bd 87f0 	ldmia.w	sp!, {r4, r5, r6, r7, r8, r9, sl, pc}
     8b0:	4628      	mov	r0, r5
     8b2:	f7ff fe6f 	bl	594 <SensorNode::PulseHandler()>
     8b6:	7b43      	ldrb	r3, [r0, #13]
     8b8:	2b00      	cmp	r3, #0
     8ba:	d0d1      	beq.n	860 <Loop()+0x24>
     8bc:	6803      	ldr	r3, [r0, #0]
     8be:	f880 a00f 	strb.w	sl, [r0, #15]
     8c2:	1afb      	subs	r3, r7, r3
     8c4:	454b      	cmp	r3, r9
     8c6:	bf84      	itt	hi
     8c8:	4699      	movhi	r9, r3
     8ca:	4680      	movhi	r8, r0
     8cc:	e7c8      	b.n	860 <Loop()+0x24>
     8ce:	f8d8 2008 	ldr.w	r2, [r8, #8]
     8d2:	4d16      	ldr	r5, [pc, #88]	; (92c <Loop()+0xf0>)
     8d4:	6003      	str	r3, [r0, #0]
     8d6:	eb02 0242 	add.w	r2, r2, r2, lsl #1
     8da:	0112      	lsls	r2, r2, #4
     8dc:	fba5 0202 	umull	r0, r2, r5, r2
     8e0:	0952      	lsrs	r2, r2, #5
     8e2:	4813      	ldr	r0, [pc, #76]	; (930 <Loop()+0xf4>)
     8e4:	f6a2 12c5 	subw	r2, r2, #2501	; 0x9c5
     8e8:	fba0 0202 	umull	r0, r2, r0, r2
     8ec:	0952      	lsrs	r2, r2, #5
     8ee:	0750      	lsls	r0, r2, #29
     8f0:	d4c4      	bmi.n	87c <Loop()+0x40>
     8f2:	f5a1 41b6 	sub.w	r1, r1, #23296	; 0x5b00
     8f6:	3968      	subs	r1, #104	; 0x68
     8f8:	f5b1 6f96 	cmp.w	r1, #1200	; 0x4b0
     8fc:	f8df 8034 	ldr.w	r8, [pc, #52]	; 934 <Loop()+0xf8>
     900:	4f08      	ldr	r7, [pc, #32]	; (924 <Loop()+0xe8>)
     902:	4d09      	ldr	r5, [pc, #36]	; (928 <Loop()+0xec>)
     904:	bf8c      	ite	hi
     906:	2100      	movhi	r1, #0
     908:	2101      	movls	r1, #1
     90a:	f002 0201 	and.w	r2, r2, #1
     90e:	f888 1000 	strb.w	r1, [r8]
     912:	703a      	strb	r2, [r7, #0]
     914:	602b      	str	r3, [r5, #0]
     916:	e7b9      	b.n	88c <Loop()+0x50>
     918:	40037104 	.word	0x40037104
     91c:	1fff9200 	.word	0x1fff9200
     920:	1fff9510 	.word	0x1fff9510
     924:	1fff91f8 	.word	0x1fff91f8
     928:	1fff91fc 	.word	0x1fff91fc
     92c:	88888889 	.word	0x88888889
     930:	10624dd3 	.word	0x10624dd3
     934:	1fff91f9 	.word	0x1fff91f9

00000938 <main>:
     938:	b508      	push	{r3, lr}
     93a:	f7ff ff57 	bl	7ec <Setup()>
     93e:	f7ff ff7d 	bl	83c <Loop()>
     942:	e7fc      	b.n	93e <main+0x6>

00000944 <_GLOBAL__sub_I_Nodes>:
     944:	b510      	push	{r4, lr}
     946:	4c0d      	ldr	r4, [pc, #52]	; (97c <_GLOBAL__sub_I_Nodes+0x38>)
     948:	2109      	movs	r1, #9
     94a:	4620      	mov	r0, r4
     94c:	f7ff fd8e 	bl	46c <SensorNode::SensorNode(unsigned char)>
     950:	f104 00c4 	add.w	r0, r4, #196	; 0xc4
     954:	210a      	movs	r1, #10
     956:	f7ff fd89 	bl	46c <SensorNode::SensorNode(unsigned char)>
     95a:	f504 70c4 	add.w	r0, r4, #392	; 0x188
     95e:	210b      	movs	r1, #11
     960:	f7ff fd84 	bl	46c <SensorNode::SensorNode(unsigned char)>
     964:	f504 7013 	add.w	r0, r4, #588	; 0x24c
     968:	210c      	movs	r1, #12
     96a:	f7ff fd7f 	bl	46c <SensorNode::SensorNode(unsigned char)>
     96e:	4a04      	ldr	r2, [pc, #16]	; (980 <_GLOBAL__sub_I_Nodes+0x3c>)
     970:	4904      	ldr	r1, [pc, #16]	; (984 <_GLOBAL__sub_I_Nodes+0x40>)
     972:	2000      	movs	r0, #0
     974:	e8bd 4010 	ldmia.w	sp!, {r4, lr}
     978:	f002 b834 	b.w	29e4 <__aeabi_atexit>
     97c:	1fff9200 	.word	0x1fff9200
     980:	1fff87fc 	.word	0x1fff87fc
     984:	00000745 	.word	0x00000745

00000988 <Print::write(unsigned char const*, unsigned int)>:
     988:	b5f8      	push	{r3, r4, r5, r6, r7, lr}
     98a:	b172      	cbz	r2, 9aa <Print::write(unsigned char const*, unsigned int)+0x22>
     98c:	4606      	mov	r6, r0
     98e:	460f      	mov	r7, r1
     990:	4614      	mov	r4, r2
     992:	2500      	movs	r5, #0
     994:	6833      	ldr	r3, [r6, #0]
     996:	f817 1b01 	ldrb.w	r1, [r7], #1
     99a:	681b      	ldr	r3, [r3, #0]
     99c:	4630      	mov	r0, r6
     99e:	4798      	blx	r3
     9a0:	3c01      	subs	r4, #1
     9a2:	4405      	add	r5, r0
     9a4:	d1f6      	bne.n	994 <Print::write(unsigned char const*, unsigned int)+0xc>
     9a6:	4628      	mov	r0, r5
     9a8:	bdf8      	pop	{r3, r4, r5, r6, r7, pc}
     9aa:	4615      	mov	r5, r2
     9ac:	e7fb      	b.n	9a6 <Print::write(unsigned char const*, unsigned int)+0x1e>
     9ae:	bf00      	nop

000009b0 <Print::print(long)>:
     9b0:	b5f0      	push	{r4, r5, r6, r7, lr}
     9b2:	2900      	cmp	r1, #0
     9b4:	b08b      	sub	sp, #44	; 0x2c
     9b6:	4604      	mov	r4, r0
     9b8:	db1b      	blt.n	9f2 <Print::print(long)+0x42>
     9ba:	d15a      	bne.n	a72 <Print::print(long)+0xc2>
     9bc:	2330      	movs	r3, #48	; 0x30
     9be:	f88d 3025 	strb.w	r3, [sp, #37]	; 0x25
     9c2:	6823      	ldr	r3, [r4, #0]
     9c4:	4a35      	ldr	r2, [pc, #212]	; (a9c <Print::print(long)+0xec>)
     9c6:	685f      	ldr	r7, [r3, #4]
     9c8:	4297      	cmp	r7, r2
     9ca:	d14a      	bne.n	a62 <Print::print(long)+0xb2>
     9cc:	2500      	movs	r5, #0
     9ce:	f10d 0125 	add.w	r1, sp, #37	; 0x25
     9d2:	460e      	mov	r6, r1
     9d4:	440d      	add	r5, r1
     9d6:	2700      	movs	r7, #0
     9d8:	e001      	b.n	9de <Print::print(long)+0x2e>
     9da:	6823      	ldr	r3, [r4, #0]
     9dc:	3601      	adds	r6, #1
     9de:	681b      	ldr	r3, [r3, #0]
     9e0:	7831      	ldrb	r1, [r6, #0]
     9e2:	4620      	mov	r0, r4
     9e4:	4798      	blx	r3
     9e6:	42b5      	cmp	r5, r6
     9e8:	4407      	add	r7, r0
     9ea:	d1f6      	bne.n	9da <Print::print(long)+0x2a>
     9ec:	4638      	mov	r0, r7
     9ee:	b00b      	add	sp, #44	; 0x2c
     9f0:	bdf0      	pop	{r4, r5, r6, r7, pc}
     9f2:	4b2b      	ldr	r3, [pc, #172]	; (aa0 <Print::print(long)+0xf0>)
     9f4:	4249      	negs	r1, r1
     9f6:	fba3 2301 	umull	r2, r3, r3, r1
     9fa:	08db      	lsrs	r3, r3, #3
     9fc:	eb03 0283 	add.w	r2, r3, r3, lsl #2
     a00:	eba1 0142 	sub.w	r1, r1, r2, lsl #1
     a04:	3130      	adds	r1, #48	; 0x30
     a06:	f88d 1025 	strb.w	r1, [sp, #37]	; 0x25
     a0a:	2b00      	cmp	r3, #0
     a0c:	d044      	beq.n	a98 <Print::print(long)+0xe8>
     a0e:	262d      	movs	r6, #45	; 0x2d
     a10:	4d23      	ldr	r5, [pc, #140]	; (aa0 <Print::print(long)+0xf0>)
     a12:	2221      	movs	r2, #33	; 0x21
     a14:	fba5 0103 	umull	r0, r1, r5, r3
     a18:	08c9      	lsrs	r1, r1, #3
     a1a:	eb01 0081 	add.w	r0, r1, r1, lsl #2
     a1e:	3a01      	subs	r2, #1
     a20:	eba3 0340 	sub.w	r3, r3, r0, lsl #1
     a24:	b2d2      	uxtb	r2, r2
     a26:	a80a      	add	r0, sp, #40	; 0x28
     a28:	4410      	add	r0, r2
     a2a:	3330      	adds	r3, #48	; 0x30
     a2c:	f800 3c24 	strb.w	r3, [r0, #-36]
     a30:	460b      	mov	r3, r1
     a32:	2900      	cmp	r1, #0
     a34:	d1ee      	bne.n	a14 <Print::print(long)+0x64>
     a36:	b35e      	cbz	r6, a90 <Print::print(long)+0xe0>
     a38:	1e55      	subs	r5, r2, #1
     a3a:	b2ed      	uxtb	r5, r5
     a3c:	ab0a      	add	r3, sp, #40	; 0x28
     a3e:	442b      	add	r3, r5
     a40:	222d      	movs	r2, #45	; 0x2d
     a42:	f803 2c24 	strb.w	r2, [r3, #-36]
     a46:	f1c5 0022 	rsb	r0, r5, #34	; 0x22
     a4a:	6823      	ldr	r3, [r4, #0]
     a4c:	4a13      	ldr	r2, [pc, #76]	; (a9c <Print::print(long)+0xec>)
     a4e:	685f      	ldr	r7, [r3, #4]
     a50:	a901      	add	r1, sp, #4
     a52:	4297      	cmp	r7, r2
     a54:	4429      	add	r1, r5
     a56:	d107      	bne.n	a68 <Print::print(long)+0xb8>
     a58:	f1c5 0521 	rsb	r5, r5, #33	; 0x21
     a5c:	2800      	cmp	r0, #0
     a5e:	d1b8      	bne.n	9d2 <Print::print(long)+0x22>
     a60:	e7c5      	b.n	9ee <Print::print(long)+0x3e>
     a62:	2001      	movs	r0, #1
     a64:	f10d 0125 	add.w	r1, sp, #37	; 0x25
     a68:	4602      	mov	r2, r0
     a6a:	4620      	mov	r0, r4
     a6c:	47b8      	blx	r7
     a6e:	b00b      	add	sp, #44	; 0x2c
     a70:	bdf0      	pop	{r4, r5, r6, r7, pc}
     a72:	4b0b      	ldr	r3, [pc, #44]	; (aa0 <Print::print(long)+0xf0>)
     a74:	fba3 2301 	umull	r2, r3, r3, r1
     a78:	08db      	lsrs	r3, r3, #3
     a7a:	eb03 0283 	add.w	r2, r3, r3, lsl #2
     a7e:	eba1 0242 	sub.w	r2, r1, r2, lsl #1
     a82:	3230      	adds	r2, #48	; 0x30
     a84:	f88d 2025 	strb.w	r2, [sp, #37]	; 0x25
     a88:	2b00      	cmp	r3, #0
     a8a:	d09a      	beq.n	9c2 <Print::print(long)+0x12>
     a8c:	2600      	movs	r6, #0
     a8e:	e7bf      	b.n	a10 <Print::print(long)+0x60>
     a90:	4615      	mov	r5, r2
     a92:	f1c2 0022 	rsb	r0, r2, #34	; 0x22
     a96:	e7d8      	b.n	a4a <Print::print(long)+0x9a>
     a98:	2221      	movs	r2, #33	; 0x21
     a9a:	e7cd      	b.n	a38 <Print::print(long)+0x88>
     a9c:	00000989 	.word	0x00000989
     aa0:	cccccccd 	.word	0xcccccccd

00000aa4 <Print::println()>:
     aa4:	b530      	push	{r4, r5, lr}
     aa6:	6803      	ldr	r3, [r0, #0]
     aa8:	490d      	ldr	r1, [pc, #52]	; (ae0 <Print::println()+0x3c>)
     aaa:	4a0e      	ldr	r2, [pc, #56]	; (ae4 <Print::println()+0x40>)
     aac:	685c      	ldr	r4, [r3, #4]
     aae:	8809      	ldrh	r1, [r1, #0]
     ab0:	b083      	sub	sp, #12
     ab2:	4294      	cmp	r4, r2
     ab4:	f8ad 1004 	strh.w	r1, [sp, #4]
     ab8:	d10d      	bne.n	ad6 <Print::println()+0x32>
     aba:	4605      	mov	r5, r0
     abc:	681b      	ldr	r3, [r3, #0]
     abe:	210d      	movs	r1, #13
     ac0:	4798      	blx	r3
     ac2:	682b      	ldr	r3, [r5, #0]
     ac4:	f89d 1005 	ldrb.w	r1, [sp, #5]
     ac8:	681b      	ldr	r3, [r3, #0]
     aca:	4604      	mov	r4, r0
     acc:	4628      	mov	r0, r5
     ace:	4798      	blx	r3
     ad0:	4420      	add	r0, r4
     ad2:	b003      	add	sp, #12
     ad4:	bd30      	pop	{r4, r5, pc}
     ad6:	a901      	add	r1, sp, #4
     ad8:	2202      	movs	r2, #2
     ada:	47a0      	blx	r4
     adc:	b003      	add	sp, #12
     ade:	bd30      	pop	{r4, r5, pc}
     ae0:	00003854 	.word	0x00003854
     ae4:	00000989 	.word	0x00000989

00000ae8 <fault_isr>:
     ae8:	b508      	push	{r3, lr}
     aea:	4c10      	ldr	r4, [pc, #64]	; (b2c <fault_isr+0x44>)
     aec:	e008      	b.n	b00 <fault_isr+0x18>
     aee:	6823      	ldr	r3, [r4, #0]
     af0:	0559      	lsls	r1, r3, #21
     af2:	d40d      	bmi.n	b10 <fault_isr+0x28>
     af4:	6823      	ldr	r3, [r4, #0]
     af6:	051a      	lsls	r2, r3, #20
     af8:	d40f      	bmi.n	b1a <fault_isr+0x32>
     afa:	6823      	ldr	r3, [r4, #0]
     afc:	04db      	lsls	r3, r3, #19
     afe:	d411      	bmi.n	b24 <fault_isr+0x3c>
     b00:	6823      	ldr	r3, [r4, #0]
     b02:	0358      	lsls	r0, r3, #13
     b04:	d5f3      	bpl.n	aee <fault_isr+0x6>
     b06:	f000 fb47 	bl	1198 <usb_isr>
     b0a:	6823      	ldr	r3, [r4, #0]
     b0c:	0559      	lsls	r1, r3, #21
     b0e:	d5f1      	bpl.n	af4 <fault_isr+0xc>
     b10:	f001 fd60 	bl	25d4 <uart0_status_isr>
     b14:	6823      	ldr	r3, [r4, #0]
     b16:	051a      	lsls	r2, r3, #20
     b18:	d5ef      	bpl.n	afa <fault_isr+0x12>
     b1a:	f001 fdf1 	bl	2700 <uart1_status_isr>
     b1e:	6823      	ldr	r3, [r4, #0]
     b20:	04db      	lsls	r3, r3, #19
     b22:	d5ed      	bpl.n	b00 <fault_isr+0x18>
     b24:	f001 fe82 	bl	282c <uart2_status_isr>
     b28:	e7ea      	b.n	b00 <fault_isr+0x18>
     b2a:	bf00      	nop
     b2c:	40048034 	.word	0x40048034

00000b30 <unused_isr>:
     b30:	b508      	push	{r3, lr}
     b32:	f7ff ffd9 	bl	ae8 <fault_isr>
     b36:	bf00      	nop

00000b38 <startup_early_hook>:
     b38:	4b01      	ldr	r3, [pc, #4]	; (b40 <startup_early_hook+0x8>)
     b3a:	2210      	movs	r2, #16
     b3c:	801a      	strh	r2, [r3, #0]
     b3e:	4770      	bx	lr
     b40:	40052000 	.word	0x40052000

00000b44 <startup_late_hook>:
     b44:	4770      	bx	lr
     b46:	bf00      	nop

00000b48 <_sbrk>:
     b48:	4909      	ldr	r1, [pc, #36]	; (b70 <_sbrk+0x28>)
     b4a:	b508      	push	{r3, lr}
     b4c:	680b      	ldr	r3, [r1, #0]
     b4e:	b130      	cbz	r0, b5e <_sbrk+0x16>
     b50:	466a      	mov	r2, sp
     b52:	4418      	add	r0, r3
     b54:	f5a2 5280 	sub.w	r2, r2, #4096	; 0x1000
     b58:	4290      	cmp	r0, r2
     b5a:	d202      	bcs.n	b62 <_sbrk+0x1a>
     b5c:	6008      	str	r0, [r1, #0]
     b5e:	4618      	mov	r0, r3
     b60:	bd08      	pop	{r3, pc}
     b62:	f002 f9a9 	bl	2eb8 <__errno>
     b66:	230c      	movs	r3, #12
     b68:	6003      	str	r3, [r0, #0]
     b6a:	f04f 30ff 	mov.w	r0, #4294967295
     b6e:	bd08      	pop	{r3, pc}
     b70:	1fff8800 	.word	0x1fff8800

00000b74 <ultoa>:
     b74:	b4f0      	push	{r4, r5, r6, r7}
     b76:	1e4d      	subs	r5, r1, #1
     b78:	462e      	mov	r6, r5
     b7a:	2400      	movs	r4, #0
     b7c:	e000      	b.n	b80 <ultoa+0xc>
     b7e:	3401      	adds	r4, #1
     b80:	fbb0 f3f2 	udiv	r3, r0, r2
     b84:	fb02 0013 	mls	r0, r2, r3, r0
     b88:	2809      	cmp	r0, #9
     b8a:	f100 0730 	add.w	r7, r0, #48	; 0x30
     b8e:	bf8a      	itet	hi
     b90:	3037      	addhi	r0, #55	; 0x37
     b92:	b2f8      	uxtbls	r0, r7
     b94:	b2c0      	uxtbhi	r0, r0
     b96:	f806 0f01 	strb.w	r0, [r6, #1]!
     b9a:	4618      	mov	r0, r3
     b9c:	2b00      	cmp	r3, #0
     b9e:	d1ee      	bne.n	b7e <ultoa+0xa>
     ba0:	190a      	adds	r2, r1, r4
     ba2:	7053      	strb	r3, [r2, #1]
     ba4:	b14c      	cbz	r4, bba <ultoa+0x46>
     ba6:	7810      	ldrb	r0, [r2, #0]
     ba8:	f815 6f01 	ldrb.w	r6, [r5, #1]!
     bac:	7028      	strb	r0, [r5, #0]
     bae:	3301      	adds	r3, #1
     bb0:	1ae0      	subs	r0, r4, r3
     bb2:	4283      	cmp	r3, r0
     bb4:	f802 6901 	strb.w	r6, [r2], #-1
     bb8:	dbf5      	blt.n	ba6 <ultoa+0x32>
     bba:	4608      	mov	r0, r1
     bbc:	bcf0      	pop	{r4, r5, r6, r7}
     bbe:	4770      	bx	lr

00000bc0 <dummy_isr>:
     bc0:	4770      	bx	lr
     bc2:	bf00      	nop

00000bc4 <attachInterrupt>:
     bc4:	2821      	cmp	r0, #33	; 0x21
     bc6:	b4f0      	push	{r4, r5, r6, r7}
     bc8:	d815      	bhi.n	bf6 <attachInterrupt+0x32>
     bca:	2a04      	cmp	r2, #4
     bcc:	d813      	bhi.n	bf6 <attachInterrupt+0x32>
     bce:	e8df f002 	tbb	[pc, r2]
     bd2:	4c49      	.short	0x4c49
     bd4:	144f      	.short	0x144f
     bd6:	46          	.byte	0x46
     bd7:	00          	.byte	0x00
     bd8:	4e2e      	ldr	r6, [pc, #184]	; (c94 <attachInterrupt+0xd0>)
     bda:	b672      	cpsid	i
     bdc:	681a      	ldr	r2, [r3, #0]
     bde:	f422 2270 	bic.w	r2, r2, #983040	; 0xf0000
     be2:	f042 7080 	orr.w	r0, r2, #16777216	; 0x1000000
     be6:	f3c3 0484 	ubfx	r4, r3, #2, #5
     bea:	4328      	orrs	r0, r5
     bec:	601a      	str	r2, [r3, #0]
     bee:	f846 1024 	str.w	r1, [r6, r4, lsl #2]
     bf2:	6018      	str	r0, [r3, #0]
     bf4:	b662      	cpsie	i
     bf6:	bcf0      	pop	{r4, r5, r6, r7}
     bf8:	4770      	bx	lr
     bfa:	f44f 2510 	mov.w	r5, #589824	; 0x90000
     bfe:	4c26      	ldr	r4, [pc, #152]	; (c98 <attachInterrupt+0xd4>)
     c00:	eb04 03c0 	add.w	r3, r4, r0, lsl #3
     c04:	685b      	ldr	r3, [r3, #4]
     c06:	681a      	ldr	r2, [r3, #0]
     c08:	f412 62e0 	ands.w	r2, r2, #1792	; 0x700
     c0c:	d035      	beq.n	c7a <attachInterrupt+0xb6>
     c0e:	4a23      	ldr	r2, [pc, #140]	; (c9c <attachInterrupt+0xd8>)
     c10:	4c23      	ldr	r4, [pc, #140]	; (ca0 <attachInterrupt+0xdc>)
     c12:	4824      	ldr	r0, [pc, #144]	; (ca4 <attachInterrupt+0xe0>)
     c14:	f8c2 419c 	str.w	r4, [r2, #412]	; 0x19c
     c18:	f103 4440 	add.w	r4, r3, #3221225472	; 0xc0000000
     c1c:	4e22      	ldr	r6, [pc, #136]	; (ca8 <attachInterrupt+0xe4>)
     c1e:	f8c2 01a4 	str.w	r0, [r2, #420]	; 0x1a4
     c22:	f5a4 2092 	sub.w	r0, r4, #299008	; 0x49000
     c26:	4f21      	ldr	r7, [pc, #132]	; (cac <attachInterrupt+0xe8>)
     c28:	f8c2 61a0 	str.w	r6, [r2, #416]	; 0x1a0
     c2c:	287c      	cmp	r0, #124	; 0x7c
     c2e:	4e20      	ldr	r6, [pc, #128]	; (cb0 <attachInterrupt+0xec>)
     c30:	f8c2 71a8 	str.w	r7, [r2, #424]	; 0x1a8
     c34:	f8c2 61ac 	str.w	r6, [r2, #428]	; 0x1ac
     c38:	d9ce      	bls.n	bd8 <attachInterrupt+0x14>
     c3a:	f5a4 2294 	sub.w	r2, r4, #303104	; 0x4a000
     c3e:	2a7c      	cmp	r2, #124	; 0x7c
     c40:	d919      	bls.n	c76 <attachInterrupt+0xb2>
     c42:	f5a4 2296 	sub.w	r2, r4, #307200	; 0x4b000
     c46:	2a7c      	cmp	r2, #124	; 0x7c
     c48:	d91f      	bls.n	c8a <attachInterrupt+0xc6>
     c4a:	f5a4 2298 	sub.w	r2, r4, #311296	; 0x4c000
     c4e:	2a7c      	cmp	r2, #124	; 0x7c
     c50:	d91d      	bls.n	c8e <attachInterrupt+0xca>
     c52:	f5a4 249a 	sub.w	r4, r4, #315392	; 0x4d000
     c56:	2c7c      	cmp	r4, #124	; 0x7c
     c58:	d8cd      	bhi.n	bf6 <attachInterrupt+0x32>
     c5a:	4e16      	ldr	r6, [pc, #88]	; (cb4 <attachInterrupt+0xf0>)
     c5c:	e7bd      	b.n	bda <attachInterrupt+0x16>
     c5e:	f44f 2530 	mov.w	r5, #720896	; 0xb0000
     c62:	e7cc      	b.n	bfe <attachInterrupt+0x3a>
     c64:	f44f 2500 	mov.w	r5, #524288	; 0x80000
     c68:	e7c9      	b.n	bfe <attachInterrupt+0x3a>
     c6a:	f44f 2540 	mov.w	r5, #786432	; 0xc0000
     c6e:	e7c6      	b.n	bfe <attachInterrupt+0x3a>
     c70:	f44f 2520 	mov.w	r5, #655360	; 0xa0000
     c74:	e7c3      	b.n	bfe <attachInterrupt+0x3a>
     c76:	4e10      	ldr	r6, [pc, #64]	; (cb8 <attachInterrupt+0xf4>)
     c78:	e7af      	b.n	bda <attachInterrupt+0x16>
     c7a:	f854 4030 	ldr.w	r4, [r4, r0, lsl #3]
     c7e:	f44f 7080 	mov.w	r0, #256	; 0x100
     c82:	f884 2280 	strb.w	r2, [r4, #640]	; 0x280
     c86:	6018      	str	r0, [r3, #0]
     c88:	e7c1      	b.n	c0e <attachInterrupt+0x4a>
     c8a:	4e0c      	ldr	r6, [pc, #48]	; (cbc <attachInterrupt+0xf8>)
     c8c:	e7a5      	b.n	bda <attachInterrupt+0x16>
     c8e:	4e0c      	ldr	r6, [pc, #48]	; (cc0 <attachInterrupt+0xfc>)
     c90:	e7a3      	b.n	bda <attachInterrupt+0x16>
     c92:	bf00      	nop
     c94:	1fff8804 	.word	0x1fff8804
     c98:	00003858 	.word	0x00003858
     c9c:	1fff8200 	.word	0x1fff8200
     ca0:	1fff87d1 	.word	0x1fff87d1
     ca4:	1fff8779 	.word	0x1fff8779
     ca8:	1fff87a5 	.word	0x1fff87a5
     cac:	1fff874d 	.word	0x1fff874d
     cb0:	1fff8721 	.word	0x1fff8721
     cb4:	1fff88dc 	.word	0x1fff88dc
     cb8:	1fff883c 	.word	0x1fff883c
     cbc:	1fff888c 	.word	0x1fff888c
     cc0:	1fff88bc 	.word	0x1fff88bc

00000cc4 <rtc_set>:
     cc4:	b430      	push	{r4, r5}
     cc6:	4b05      	ldr	r3, [pc, #20]	; (cdc <rtc_set+0x18>)
     cc8:	4d05      	ldr	r5, [pc, #20]	; (ce0 <rtc_set+0x1c>)
     cca:	4c06      	ldr	r4, [pc, #24]	; (ce4 <rtc_set+0x20>)
     ccc:	2200      	movs	r2, #0
     cce:	2110      	movs	r1, #16
     cd0:	601a      	str	r2, [r3, #0]
     cd2:	602a      	str	r2, [r5, #0]
     cd4:	6020      	str	r0, [r4, #0]
     cd6:	6019      	str	r1, [r3, #0]
     cd8:	bc30      	pop	{r4, r5}
     cda:	4770      	bx	lr
     cdc:	4003d014 	.word	0x4003d014
     ce0:	4003d004 	.word	0x4003d004
     ce4:	4003d000 	.word	0x4003d000

00000ce8 <_init_Teensyduino_internal_>:
     ce8:	e92d 43f8 	stmdb	sp!, {r3, r4, r5, r6, r7, r8, r9, lr}
     cec:	4b6a      	ldr	r3, [pc, #424]	; (e98 <_init_Teensyduino_internal_+0x1b0>)
     cee:	496b      	ldr	r1, [pc, #428]	; (e9c <_init_Teensyduino_internal_+0x1b4>)
     cf0:	4e6b      	ldr	r6, [pc, #428]	; (ea0 <_init_Teensyduino_internal_+0x1b8>)
     cf2:	4d6c      	ldr	r5, [pc, #432]	; (ea4 <_init_Teensyduino_internal_+0x1bc>)
     cf4:	4c6c      	ldr	r4, [pc, #432]	; (ea8 <_init_Teensyduino_internal_+0x1c0>)
     cf6:	f8df c1d0 	ldr.w	ip, [pc, #464]	; ec8 <_init_Teensyduino_internal_+0x1e0>
     cfa:	f8df e1d0 	ldr.w	lr, [pc, #464]	; ecc <_init_Teensyduino_internal_+0x1e4>
     cfe:	4a6b      	ldr	r2, [pc, #428]	; (eac <_init_Teensyduino_internal_+0x1c4>)
     d00:	4f6b      	ldr	r7, [pc, #428]	; (eb0 <_init_Teensyduino_internal_+0x1c8>)
     d02:	f44f 0000 	mov.w	r0, #8388608	; 0x800000
     d06:	6018      	str	r0, [r3, #0]
     d08:	f04f 7080 	mov.w	r0, #16777216	; 0x1000000
     d0c:	6018      	str	r0, [r3, #0]
     d0e:	f04f 7000 	mov.w	r0, #33554432	; 0x2000000
     d12:	6018      	str	r0, [r3, #0]
     d14:	f04f 6080 	mov.w	r0, #67108864	; 0x4000000
     d18:	6018      	str	r0, [r3, #0]
     d1a:	f04f 6000 	mov.w	r0, #134217728	; 0x8000000
     d1e:	6018      	str	r0, [r3, #0]
     d20:	2000      	movs	r0, #0
     d22:	6008      	str	r0, [r1, #0]
     d24:	2328      	movs	r3, #40	; 0x28
     d26:	f64e 71ff 	movw	r1, #61439	; 0xefff
     d2a:	f8cc 1000 	str.w	r1, [ip]
     d2e:	f8ce 3000 	str.w	r3, [lr]
     d32:	6033      	str	r3, [r6, #0]
     d34:	6013      	str	r3, [r2, #0]
     d36:	602b      	str	r3, [r5, #0]
     d38:	6023      	str	r3, [r4, #0]
     d3a:	603b      	str	r3, [r7, #0]
     d3c:	62b3      	str	r3, [r6, #40]	; 0x28
     d3e:	6293      	str	r3, [r2, #40]	; 0x28
     d40:	2209      	movs	r2, #9
     d42:	f845 2c24 	str.w	r2, [r5, #-36]
     d46:	f8c4 0fd8 	str.w	r0, [r4, #4056]	; 0xfd8
     d4a:	f505 657f 	add.w	r5, r5, #4080	; 0xff0
     d4e:	f8c7 1fd4 	str.w	r1, [r7, #4052]	; 0xfd4
     d52:	f507 27ff 	add.w	r7, r7, #522240	; 0x7f800
     d56:	f507 67fa 	add.w	r7, r7, #2000	; 0x7d0
     d5a:	f8c6 3ff8 	str.w	r3, [r6, #4088]	; 0xff8
     d5e:	602b      	str	r3, [r5, #0]
     d60:	f506 26ff 	add.w	r6, r6, #522240	; 0x7f800
     d64:	f8c4 2fd4 	str.w	r2, [r4, #4052]	; 0xfd4
     d68:	f505 25fd 	add.w	r5, r5, #518144	; 0x7e800
     d6c:	f504 24ff 	add.w	r4, r4, #522240	; 0x7f800
     d70:	6038      	str	r0, [r7, #0]
     d72:	f206 76f4 	addw	r6, r6, #2036	; 0x7f4
     d76:	484f      	ldr	r0, [pc, #316]	; (eb4 <_init_Teensyduino_internal_+0x1cc>)
     d78:	6031      	str	r1, [r6, #0]
     d7a:	f505 65ff 	add.w	r5, r5, #2040	; 0x7f8
     d7e:	f504 64fd 	add.w	r4, r4, #2024	; 0x7e8
     d82:	602b      	str	r3, [r5, #0]
     d84:	6023      	str	r3, [r4, #0]
     d86:	6002      	str	r2, [r0, #0]
     d88:	f001 fba4 	bl	24d4 <analog_init>
     d8c:	b672      	cpsid	i
     d8e:	4d4a      	ldr	r5, [pc, #296]	; (eb8 <_init_Teensyduino_internal_+0x1d0>)
     d90:	4b4a      	ldr	r3, [pc, #296]	; (ebc <_init_Teensyduino_internal_+0x1d4>)
     d92:	4a4b      	ldr	r2, [pc, #300]	; (ec0 <_init_Teensyduino_internal_+0x1d8>)
     d94:	681b      	ldr	r3, [r3, #0]
     d96:	682c      	ldr	r4, [r5, #0]
     d98:	6812      	ldr	r2, [r2, #0]
     d9a:	b662      	cpsie	i
     d9c:	0151      	lsls	r1, r2, #5
     d9e:	d502      	bpl.n	da6 <_init_Teensyduino_internal_+0xbe>
     da0:	2b32      	cmp	r3, #50	; 0x32
     da2:	bf88      	it	hi
     da4:	3401      	addhi	r4, #1
     da6:	f5c3 33ea 	rsb	r3, r3, #119808	; 0x1d400
     daa:	4f46      	ldr	r7, [pc, #280]	; (ec4 <_init_Teensyduino_internal_+0x1dc>)
     dac:	f8df 910c 	ldr.w	r9, [pc, #268]	; ebc <_init_Teensyduino_internal_+0x1d4>
     db0:	f8df 810c 	ldr.w	r8, [pc, #268]	; ec0 <_init_Teensyduino_internal_+0x1d8>
     db4:	33bf      	adds	r3, #191	; 0xbf
     db6:	f44f 727a 	mov.w	r2, #1000	; 0x3e8
     dba:	fba7 1303 	umull	r1, r3, r7, r3
     dbe:	fb02 f404 	mul.w	r4, r2, r4
     dc2:	eb04 1493 	add.w	r4, r4, r3, lsr #6
     dc6:	2632      	movs	r6, #50	; 0x32
     dc8:	b672      	cpsid	i
     dca:	f8d9 1000 	ldr.w	r1, [r9]
     dce:	682a      	ldr	r2, [r5, #0]
     dd0:	f8d8 e000 	ldr.w	lr, [r8]
     dd4:	b662      	cpsie	i
     dd6:	f5c1 33ea 	rsb	r3, r1, #119808	; 0x1d400
     dda:	33bf      	adds	r3, #191	; 0xbf
     ddc:	fba7 0303 	umull	r0, r3, r7, r3
     de0:	f01e 6f80 	tst.w	lr, #67108864	; 0x4000000
     de4:	ebc4 1393 	rsb	r3, r4, r3, lsr #6
     de8:	f44f 707a 	mov.w	r0, #1000	; 0x3e8
     dec:	d002      	beq.n	df4 <_init_Teensyduino_internal_+0x10c>
     dee:	2932      	cmp	r1, #50	; 0x32
     df0:	bf88      	it	hi
     df2:	3201      	addhi	r2, #1
     df4:	fb00 3302 	mla	r3, r0, r2, r3
     df8:	f5b3 7f7a 	cmp.w	r3, #1000	; 0x3e8
     dfc:	d304      	bcc.n	e08 <_init_Teensyduino_internal_+0x120>
     dfe:	3e01      	subs	r6, #1
     e00:	d005      	beq.n	e0e <_init_Teensyduino_internal_+0x126>
     e02:	f504 747a 	add.w	r4, r4, #1000	; 0x3e8
     e06:	e7df      	b.n	dc8 <_init_Teensyduino_internal_+0xe0>
     e08:	f001 f9a2 	bl	2150 <yield>
     e0c:	e7dc      	b.n	dc8 <_init_Teensyduino_internal_+0xe0>
     e0e:	f000 ff1d 	bl	1c4c <usb_init>
     e12:	b672      	cpsid	i
     e14:	4b29      	ldr	r3, [pc, #164]	; (ebc <_init_Teensyduino_internal_+0x1d4>)
     e16:	4a2a      	ldr	r2, [pc, #168]	; (ec0 <_init_Teensyduino_internal_+0x1d8>)
     e18:	681b      	ldr	r3, [r3, #0]
     e1a:	682c      	ldr	r4, [r5, #0]
     e1c:	6812      	ldr	r2, [r2, #0]
     e1e:	b662      	cpsie	i
     e20:	0152      	lsls	r2, r2, #5
     e22:	d502      	bpl.n	e2a <_init_Teensyduino_internal_+0x142>
     e24:	2b32      	cmp	r3, #50	; 0x32
     e26:	bf88      	it	hi
     e28:	3401      	addhi	r4, #1
     e2a:	f5c3 33ea 	rsb	r3, r3, #119808	; 0x1d400
     e2e:	4f25      	ldr	r7, [pc, #148]	; (ec4 <_init_Teensyduino_internal_+0x1dc>)
     e30:	f8df 9088 	ldr.w	r9, [pc, #136]	; ebc <_init_Teensyduino_internal_+0x1d4>
     e34:	f8df 8088 	ldr.w	r8, [pc, #136]	; ec0 <_init_Teensyduino_internal_+0x1d8>
     e38:	33bf      	adds	r3, #191	; 0xbf
     e3a:	f44f 727a 	mov.w	r2, #1000	; 0x3e8
     e3e:	fba7 1303 	umull	r1, r3, r7, r3
     e42:	fb02 f404 	mul.w	r4, r2, r4
     e46:	eb04 1493 	add.w	r4, r4, r3, lsr #6
     e4a:	f44f 76af 	mov.w	r6, #350	; 0x15e
     e4e:	b672      	cpsid	i
     e50:	f8d9 1000 	ldr.w	r1, [r9]
     e54:	682a      	ldr	r2, [r5, #0]
     e56:	f8d8 e000 	ldr.w	lr, [r8]
     e5a:	b662      	cpsie	i
     e5c:	f5c1 33ea 	rsb	r3, r1, #119808	; 0x1d400
     e60:	33bf      	adds	r3, #191	; 0xbf
     e62:	fba7 0303 	umull	r0, r3, r7, r3
     e66:	f01e 6f80 	tst.w	lr, #67108864	; 0x4000000
     e6a:	ebc4 1393 	rsb	r3, r4, r3, lsr #6
     e6e:	f44f 707a 	mov.w	r0, #1000	; 0x3e8
     e72:	d002      	beq.n	e7a <_init_Teensyduino_internal_+0x192>
     e74:	2932      	cmp	r1, #50	; 0x32
     e76:	bf88      	it	hi
     e78:	3201      	addhi	r2, #1
     e7a:	fb00 3302 	mla	r3, r0, r2, r3
     e7e:	f5b3 7f7a 	cmp.w	r3, #1000	; 0x3e8
     e82:	d304      	bcc.n	e8e <_init_Teensyduino_internal_+0x1a6>
     e84:	3e01      	subs	r6, #1
     e86:	d005      	beq.n	e94 <_init_Teensyduino_internal_+0x1ac>
     e88:	f504 747a 	add.w	r4, r4, #1000	; 0x3e8
     e8c:	e7df      	b.n	e4e <_init_Teensyduino_internal_+0x166>
     e8e:	f001 f95f 	bl	2150 <yield>
     e92:	e7dc      	b.n	e4e <_init_Teensyduino_internal_+0x166>
     e94:	e8bd 83f8 	ldmia.w	sp!, {r3, r4, r5, r6, r7, r8, r9, pc}
     e98:	e000e108 	.word	0xe000e108
     e9c:	40038004 	.word	0x40038004
     ea0:	40038014 	.word	0x40038014
     ea4:	40038024 	.word	0x40038024
     ea8:	4003802c 	.word	0x4003802c
     eac:	4003801c 	.word	0x4003801c
     eb0:	40038034 	.word	0x40038034
     eb4:	400b8000 	.word	0x400b8000
     eb8:	1fff9514 	.word	0x1fff9514
     ebc:	e000e018 	.word	0xe000e018
     ec0:	e000ed04 	.word	0xe000ed04
     ec4:	88888889 	.word	0x88888889
     ec8:	40038008 	.word	0x40038008
     ecc:	4003800c 	.word	0x4003800c

00000ed0 <pinMode>:
     ed0:	2821      	cmp	r0, #33	; 0x21
     ed2:	d820      	bhi.n	f16 <pinMode+0x46>
     ed4:	4a1b      	ldr	r2, [pc, #108]	; (f44 <pinMode+0x74>)
     ed6:	eb02 03c0 	add.w	r3, r2, r0, lsl #3
     eda:	2901      	cmp	r1, #1
     edc:	685b      	ldr	r3, [r3, #4]
     ede:	d00f      	beq.n	f00 <pinMode+0x30>
     ee0:	2904      	cmp	r1, #4
     ee2:	d01d      	beq.n	f20 <pinMode+0x50>
     ee4:	f852 0030 	ldr.w	r0, [r2, r0, lsl #3]
     ee8:	2200      	movs	r2, #0
     eea:	f880 2280 	strb.w	r2, [r0, #640]	; 0x280
     eee:	b199      	cbz	r1, f18 <pinMode+0x48>
     ef0:	2902      	cmp	r1, #2
     ef2:	d022      	beq.n	f3a <pinMode+0x6a>
     ef4:	2903      	cmp	r1, #3
     ef6:	d10d      	bne.n	f14 <pinMode+0x44>
     ef8:	f44f 7281 	mov.w	r2, #258	; 0x102
     efc:	601a      	str	r2, [r3, #0]
     efe:	4770      	bx	lr
     f00:	f852 0030 	ldr.w	r0, [r2, r0, lsl #3]
     f04:	f44f 72a2 	mov.w	r2, #324	; 0x144
     f08:	f880 1280 	strb.w	r1, [r0, #640]	; 0x280
     f0c:	601a      	str	r2, [r3, #0]
     f0e:	681a      	ldr	r2, [r3, #0]
     f10:	f022 0220 	bic.w	r2, r2, #32
     f14:	601a      	str	r2, [r3, #0]
     f16:	4770      	bx	lr
     f18:	f44f 7280 	mov.w	r2, #256	; 0x100
     f1c:	601a      	str	r2, [r3, #0]
     f1e:	4770      	bx	lr
     f20:	f852 1030 	ldr.w	r1, [r2, r0, lsl #3]
     f24:	f44f 72a2 	mov.w	r2, #324	; 0x144
     f28:	2001      	movs	r0, #1
     f2a:	f881 0280 	strb.w	r0, [r1, #640]	; 0x280
     f2e:	601a      	str	r2, [r3, #0]
     f30:	681a      	ldr	r2, [r3, #0]
     f32:	f042 0220 	orr.w	r2, r2, #32
     f36:	601a      	str	r2, [r3, #0]
     f38:	4770      	bx	lr
     f3a:	f240 1203 	movw	r2, #259	; 0x103
     f3e:	601a      	str	r2, [r3, #0]
     f40:	4770      	bx	lr
     f42:	bf00      	nop
     f44:	00003858 	.word	0x00003858

00000f48 <delay>:
     f48:	e92d 43f8 	stmdb	sp!, {r3, r4, r5, r6, r7, r8, r9, lr}
     f4c:	4605      	mov	r5, r0
     f4e:	b672      	cpsid	i
     f50:	4f20      	ldr	r7, [pc, #128]	; (fd4 <delay+0x8c>)
     f52:	4b21      	ldr	r3, [pc, #132]	; (fd8 <delay+0x90>)
     f54:	4a21      	ldr	r2, [pc, #132]	; (fdc <delay+0x94>)
     f56:	681b      	ldr	r3, [r3, #0]
     f58:	683c      	ldr	r4, [r7, #0]
     f5a:	6812      	ldr	r2, [r2, #0]
     f5c:	b662      	cpsie	i
     f5e:	0152      	lsls	r2, r2, #5
     f60:	d502      	bpl.n	f68 <delay+0x20>
     f62:	2b32      	cmp	r3, #50	; 0x32
     f64:	bf88      	it	hi
     f66:	3401      	addhi	r4, #1
     f68:	b395      	cbz	r5, fd0 <delay+0x88>
     f6a:	f5c3 33ea 	rsb	r3, r3, #119808	; 0x1d400
     f6e:	4e1c      	ldr	r6, [pc, #112]	; (fe0 <delay+0x98>)
     f70:	f8df 9064 	ldr.w	r9, [pc, #100]	; fd8 <delay+0x90>
     f74:	f8df 8064 	ldr.w	r8, [pc, #100]	; fdc <delay+0x94>
     f78:	33bf      	adds	r3, #191	; 0xbf
     f7a:	f44f 727a 	mov.w	r2, #1000	; 0x3e8
     f7e:	fba6 1303 	umull	r1, r3, r6, r3
     f82:	fb02 f404 	mul.w	r4, r2, r4
     f86:	eb04 1493 	add.w	r4, r4, r3, lsr #6
     f8a:	b672      	cpsid	i
     f8c:	f8d9 1000 	ldr.w	r1, [r9]
     f90:	683a      	ldr	r2, [r7, #0]
     f92:	f8d8 e000 	ldr.w	lr, [r8]
     f96:	b662      	cpsie	i
     f98:	f5c1 33ea 	rsb	r3, r1, #119808	; 0x1d400
     f9c:	33bf      	adds	r3, #191	; 0xbf
     f9e:	fba6 0303 	umull	r0, r3, r6, r3
     fa2:	f01e 6f80 	tst.w	lr, #67108864	; 0x4000000
     fa6:	ebc4 1393 	rsb	r3, r4, r3, lsr #6
     faa:	f44f 707a 	mov.w	r0, #1000	; 0x3e8
     fae:	d002      	beq.n	fb6 <delay+0x6e>
     fb0:	2932      	cmp	r1, #50	; 0x32
     fb2:	bf88      	it	hi
     fb4:	3201      	addhi	r2, #1
     fb6:	fb00 3302 	mla	r3, r0, r2, r3
     fba:	f5b3 7f7a 	cmp.w	r3, #1000	; 0x3e8
     fbe:	d304      	bcc.n	fca <delay+0x82>
     fc0:	3d01      	subs	r5, #1
     fc2:	d005      	beq.n	fd0 <delay+0x88>
     fc4:	f504 747a 	add.w	r4, r4, #1000	; 0x3e8
     fc8:	e7df      	b.n	f8a <delay+0x42>
     fca:	f001 f8c1 	bl	2150 <yield>
     fce:	e7dc      	b.n	f8a <delay+0x42>
     fd0:	e8bd 83f8 	ldmia.w	sp!, {r3, r4, r5, r6, r7, r8, r9, pc}
     fd4:	1fff9514 	.word	0x1fff9514
     fd8:	e000e018 	.word	0xe000e018
     fdc:	e000ed04 	.word	0xe000ed04
     fe0:	88888889 	.word	0x88888889

00000fe4 <usb_rx>:
     fe4:	1e43      	subs	r3, r0, #1
     fe6:	2b03      	cmp	r3, #3
     fe8:	d814      	bhi.n	1014 <usb_rx+0x30>
     fea:	b672      	cpsid	i
     fec:	490a      	ldr	r1, [pc, #40]	; (1018 <usb_rx+0x34>)
     fee:	f851 0023 	ldr.w	r0, [r1, r3, lsl #2]
     ff2:	b168      	cbz	r0, 1010 <usb_rx+0x2c>
     ff4:	b470      	push	{r4, r5, r6}
     ff6:	4c09      	ldr	r4, [pc, #36]	; (101c <usb_rx+0x38>)
     ff8:	8805      	ldrh	r5, [r0, #0]
     ffa:	f834 2013 	ldrh.w	r2, [r4, r3, lsl #1]
     ffe:	6846      	ldr	r6, [r0, #4]
    1000:	f841 6023 	str.w	r6, [r1, r3, lsl #2]
    1004:	1b52      	subs	r2, r2, r5
    1006:	f824 2013 	strh.w	r2, [r4, r3, lsl #1]
    100a:	b662      	cpsie	i
    100c:	bc70      	pop	{r4, r5, r6}
    100e:	4770      	bx	lr
    1010:	b662      	cpsie	i
    1012:	4770      	bx	lr
    1014:	2000      	movs	r0, #0
    1016:	4770      	bx	lr
    1018:	1fff9570 	.word	0x1fff9570
    101c:	1fff97f4 	.word	0x1fff97f4

00001020 <usb_tx_packet_count>:
    1020:	3801      	subs	r0, #1
    1022:	2803      	cmp	r0, #3
    1024:	d80b      	bhi.n	103e <usb_tx_packet_count+0x1e>
    1026:	b672      	cpsid	i
    1028:	4b07      	ldr	r3, [pc, #28]	; (1048 <usb_tx_packet_count+0x28>)
    102a:	f853 3020 	ldr.w	r3, [r3, r0, lsl #2]
    102e:	b143      	cbz	r3, 1042 <usb_tx_packet_count+0x22>
    1030:	2000      	movs	r0, #0
    1032:	685b      	ldr	r3, [r3, #4]
    1034:	3001      	adds	r0, #1
    1036:	2b00      	cmp	r3, #0
    1038:	d1fb      	bne.n	1032 <usb_tx_packet_count+0x12>
    103a:	b662      	cpsie	i
    103c:	4770      	bx	lr
    103e:	2000      	movs	r0, #0
    1040:	4770      	bx	lr
    1042:	4618      	mov	r0, r3
    1044:	e7f9      	b.n	103a <usb_tx_packet_count+0x1a>
    1046:	bf00      	nop
    1048:	1fff95c4 	.word	0x1fff95c4

0000104c <usb_rx_memory>:
    104c:	b430      	push	{r4, r5}
    104e:	b672      	cpsid	i
    1050:	4a2b      	ldr	r2, [pc, #172]	; (1100 <usb_rx_memory+0xb4>)
    1052:	7813      	ldrb	r3, [r2, #0]
    1054:	071d      	lsls	r5, r3, #28
    1056:	d506      	bpl.n	1066 <usb_rx_memory+0x1a>
    1058:	4b2a      	ldr	r3, [pc, #168]	; (1104 <usb_rx_memory+0xb8>)
    105a:	6a19      	ldr	r1, [r3, #32]
    105c:	2900      	cmp	r1, #0
    105e:	d036      	beq.n	10ce <usb_rx_memory+0x82>
    1060:	6a99      	ldr	r1, [r3, #40]	; 0x28
    1062:	2900      	cmp	r1, #0
    1064:	d041      	beq.n	10ea <usb_rx_memory+0x9e>
    1066:	7853      	ldrb	r3, [r2, #1]
    1068:	071c      	lsls	r4, r3, #28
    106a:	d506      	bpl.n	107a <usb_rx_memory+0x2e>
    106c:	4b25      	ldr	r3, [pc, #148]	; (1104 <usb_rx_memory+0xb8>)
    106e:	6c19      	ldr	r1, [r3, #64]	; 0x40
    1070:	2900      	cmp	r1, #0
    1072:	d03e      	beq.n	10f2 <usb_rx_memory+0xa6>
    1074:	6c99      	ldr	r1, [r3, #72]	; 0x48
    1076:	2900      	cmp	r1, #0
    1078:	d039      	beq.n	10ee <usb_rx_memory+0xa2>
    107a:	7893      	ldrb	r3, [r2, #2]
    107c:	0719      	lsls	r1, r3, #28
    107e:	d505      	bpl.n	108c <usb_rx_memory+0x40>
    1080:	4b20      	ldr	r3, [pc, #128]	; (1104 <usb_rx_memory+0xb8>)
    1082:	6e19      	ldr	r1, [r3, #96]	; 0x60
    1084:	2900      	cmp	r1, #0
    1086:	d036      	beq.n	10f6 <usb_rx_memory+0xaa>
    1088:	6e99      	ldr	r1, [r3, #104]	; 0x68
    108a:	b189      	cbz	r1, 10b0 <usb_rx_memory+0x64>
    108c:	78d3      	ldrb	r3, [r2, #3]
    108e:	071b      	lsls	r3, r3, #28
    1090:	d507      	bpl.n	10a2 <usb_rx_memory+0x56>
    1092:	4b1c      	ldr	r3, [pc, #112]	; (1104 <usb_rx_memory+0xb8>)
    1094:	f8d3 2080 	ldr.w	r2, [r3, #128]	; 0x80
    1098:	b37a      	cbz	r2, 10fa <usb_rx_memory+0xae>
    109a:	f8d3 2088 	ldr.w	r2, [r3, #136]	; 0x88
    109e:	2111      	movs	r1, #17
    10a0:	b13a      	cbz	r2, 10b2 <usb_rx_memory+0x66>
    10a2:	b662      	cpsie	i
    10a4:	4b18      	ldr	r3, [pc, #96]	; (1108 <usb_rx_memory+0xbc>)
    10a6:	2200      	movs	r2, #0
    10a8:	701a      	strb	r2, [r3, #0]
    10aa:	bc30      	pop	{r4, r5}
    10ac:	f000 be70 	b.w	1d90 <usb_free>
    10b0:	210d      	movs	r1, #13
    10b2:	4c15      	ldr	r4, [pc, #84]	; (1108 <usb_rx_memory+0xbc>)
    10b4:	4d15      	ldr	r5, [pc, #84]	; (110c <usb_rx_memory+0xc0>)
    10b6:	7822      	ldrb	r2, [r4, #0]
    10b8:	f843 5031 	str.w	r5, [r3, r1, lsl #3]
    10bc:	eb03 03c1 	add.w	r3, r3, r1, lsl #3
    10c0:	3008      	adds	r0, #8
    10c2:	3a01      	subs	r2, #1
    10c4:	6058      	str	r0, [r3, #4]
    10c6:	7022      	strb	r2, [r4, #0]
    10c8:	b662      	cpsie	i
    10ca:	bc30      	pop	{r4, r5}
    10cc:	4770      	bx	lr
    10ce:	2204      	movs	r2, #4
    10d0:	4c0d      	ldr	r4, [pc, #52]	; (1108 <usb_rx_memory+0xbc>)
    10d2:	4d0f      	ldr	r5, [pc, #60]	; (1110 <usb_rx_memory+0xc4>)
    10d4:	7821      	ldrb	r1, [r4, #0]
    10d6:	f843 5032 	str.w	r5, [r3, r2, lsl #3]
    10da:	eb03 03c2 	add.w	r3, r3, r2, lsl #3
    10de:	3008      	adds	r0, #8
    10e0:	1e4a      	subs	r2, r1, #1
    10e2:	6058      	str	r0, [r3, #4]
    10e4:	7022      	strb	r2, [r4, #0]
    10e6:	b662      	cpsie	i
    10e8:	e7ef      	b.n	10ca <usb_rx_memory+0x7e>
    10ea:	2105      	movs	r1, #5
    10ec:	e7e1      	b.n	10b2 <usb_rx_memory+0x66>
    10ee:	2109      	movs	r1, #9
    10f0:	e7df      	b.n	10b2 <usb_rx_memory+0x66>
    10f2:	2208      	movs	r2, #8
    10f4:	e7ec      	b.n	10d0 <usb_rx_memory+0x84>
    10f6:	220c      	movs	r2, #12
    10f8:	e7ea      	b.n	10d0 <usb_rx_memory+0x84>
    10fa:	2210      	movs	r2, #16
    10fc:	e7e8      	b.n	10d0 <usb_rx_memory+0x84>
    10fe:	bf00      	nop
    1100:	00003990 	.word	0x00003990
    1104:	1fff8000 	.word	0x1fff8000
    1108:	1fff95ed 	.word	0x1fff95ed
    110c:	004000c8 	.word	0x004000c8
    1110:	00400088 	.word	0x00400088

00001114 <usb_tx>:
    1114:	1e43      	subs	r3, r0, #1
    1116:	2b03      	cmp	r3, #3
    1118:	d81d      	bhi.n	1156 <usb_tx+0x42>
    111a:	4a1b      	ldr	r2, [pc, #108]	; (1188 <usb_tx+0x74>)
    111c:	0140      	lsls	r0, r0, #5
    111e:	f040 0010 	orr.w	r0, r0, #16
    1122:	b430      	push	{r4, r5}
    1124:	4410      	add	r0, r2
    1126:	b672      	cpsid	i
    1128:	4c18      	ldr	r4, [pc, #96]	; (118c <usb_tx+0x78>)
    112a:	5ce2      	ldrb	r2, [r4, r3]
    112c:	2a03      	cmp	r2, #3
    112e:	d81b      	bhi.n	1168 <usb_tx+0x54>
    1130:	e8df f002 	tbb	[pc, r2]
    1134:	17151202 	.word	0x17151202
    1138:	2203      	movs	r2, #3
    113a:	880d      	ldrh	r5, [r1, #0]
    113c:	54e2      	strb	r2, [r4, r3]
    113e:	f010 0f08 	tst.w	r0, #8
    1142:	bf14      	ite	ne
    1144:	23c8      	movne	r3, #200	; 0xc8
    1146:	2388      	moveq	r3, #136	; 0x88
    1148:	ea43 4305 	orr.w	r3, r3, r5, lsl #16
    114c:	3108      	adds	r1, #8
    114e:	6003      	str	r3, [r0, #0]
    1150:	6041      	str	r1, [r0, #4]
    1152:	b662      	cpsie	i
    1154:	bc30      	pop	{r4, r5}
    1156:	4770      	bx	lr
    1158:	3008      	adds	r0, #8
    115a:	2202      	movs	r2, #2
    115c:	e7ed      	b.n	113a <usb_tx+0x26>
    115e:	2205      	movs	r2, #5
    1160:	e7eb      	b.n	113a <usb_tx+0x26>
    1162:	3008      	adds	r0, #8
    1164:	2204      	movs	r2, #4
    1166:	e7e8      	b.n	113a <usb_tx+0x26>
    1168:	4a09      	ldr	r2, [pc, #36]	; (1190 <usb_tx+0x7c>)
    116a:	f852 0023 	ldr.w	r0, [r2, r3, lsl #2]
    116e:	b138      	cbz	r0, 1180 <usb_tx+0x6c>
    1170:	4a08      	ldr	r2, [pc, #32]	; (1194 <usb_tx+0x80>)
    1172:	f852 0023 	ldr.w	r0, [r2, r3, lsl #2]
    1176:	6041      	str	r1, [r0, #4]
    1178:	f842 1023 	str.w	r1, [r2, r3, lsl #2]
    117c:	b662      	cpsie	i
    117e:	e7e9      	b.n	1154 <usb_tx+0x40>
    1180:	f842 1023 	str.w	r1, [r2, r3, lsl #2]
    1184:	4a03      	ldr	r2, [pc, #12]	; (1194 <usb_tx+0x80>)
    1186:	e7f7      	b.n	1178 <usb_tx+0x64>
    1188:	1fff8000 	.word	0x1fff8000
    118c:	1fff95fc 	.word	0x1fff95fc
    1190:	1fff95c4 	.word	0x1fff95c4
    1194:	1fff95d4 	.word	0x1fff95d4

00001198 <usb_isr>:
    1198:	e92d 4ff0 	stmdb	sp!, {r4, r5, r6, r7, r8, r9, sl, fp, lr}
    119c:	f8df b30c 	ldr.w	fp, [pc, #780]	; 14ac <usb_isr+0x314>
    11a0:	f8df a30c 	ldr.w	sl, [pc, #780]	; 14b0 <usb_isr+0x318>
    11a4:	b087      	sub	sp, #28
    11a6:	e044      	b.n	1232 <usb_isr+0x9a>
    11a8:	4fab      	ldr	r7, [pc, #684]	; (1458 <usb_isr+0x2c0>)
    11aa:	ea4f 0893 	mov.w	r8, r3, lsr #2
    11ae:	eb07 09c8 	add.w	r9, r7, r8, lsl #3
    11b2:	3e01      	subs	r6, #1
    11b4:	f8d9 2004 	ldr.w	r2, [r9, #4]
    11b8:	f003 0308 	and.w	r3, r3, #8
    11bc:	b2f6      	uxtb	r6, r6
    11be:	f1a2 0008 	sub.w	r0, r2, #8
    11c2:	f003 04ff 	and.w	r4, r3, #255	; 0xff
    11c6:	2b00      	cmp	r3, #0
    11c8:	f040 8102 	bne.w	13d0 <usb_isr+0x238>
    11cc:	f857 3038 	ldr.w	r3, [r7, r8, lsl #3]
    11d0:	0c1b      	lsrs	r3, r3, #16
    11d2:	b299      	uxth	r1, r3
    11d4:	f822 1c08 	strh.w	r1, [r2, #-8]
    11d8:	2b00      	cmp	r3, #0
    11da:	f000 80f0 	beq.w	13be <usb_isr+0x226>
    11de:	4b9f      	ldr	r3, [pc, #636]	; (145c <usb_isr+0x2c4>)
    11e0:	f822 4c06 	strh.w	r4, [r2, #-6]
    11e4:	f842 4c04 	str.w	r4, [r2, #-4]
    11e8:	f853 2026 	ldr.w	r2, [r3, r6, lsl #2]
    11ec:	2a00      	cmp	r2, #0
    11ee:	f000 82c5 	beq.w	177c <usb_isr+0x5e4>
    11f2:	4d9b      	ldr	r5, [pc, #620]	; (1460 <usb_isr+0x2c8>)
    11f4:	f855 3026 	ldr.w	r3, [r5, r6, lsl #2]
    11f8:	6058      	str	r0, [r3, #4]
    11fa:	4c9a      	ldr	r4, [pc, #616]	; (1464 <usb_isr+0x2cc>)
    11fc:	f845 0026 	str.w	r0, [r5, r6, lsl #2]
    1200:	f834 3016 	ldrh.w	r3, [r4, r6, lsl #1]
    1204:	4419      	add	r1, r3
    1206:	f824 1016 	strh.w	r1, [r4, r6, lsl #1]
    120a:	f000 fda1 	bl	1d50 <usb_malloc>
    120e:	2800      	cmp	r0, #0
    1210:	f000 82ad 	beq.w	176e <usb_isr+0x5d6>
    1214:	4a94      	ldr	r2, [pc, #592]	; (1468 <usb_isr+0x2d0>)
    1216:	4b95      	ldr	r3, [pc, #596]	; (146c <usb_isr+0x2d4>)
    1218:	f019 0f08 	tst.w	r9, #8
    121c:	f100 0008 	add.w	r0, r0, #8
    1220:	bf18      	it	ne
    1222:	4613      	movne	r3, r2
    1224:	f8c9 0004 	str.w	r0, [r9, #4]
    1228:	f847 3038 	str.w	r3, [r7, r8, lsl #3]
    122c:	2308      	movs	r3, #8
    122e:	f88b 3000 	strb.w	r3, [fp]
    1232:	f89b 4000 	ldrb.w	r4, [fp]
    1236:	b2e4      	uxtb	r4, r4
    1238:	0761      	lsls	r1, r4, #29
    123a:	d51a      	bpl.n	1272 <usb_isr+0xda>
    123c:	4b8c      	ldr	r3, [pc, #560]	; (1470 <usb_isr+0x2d8>)
    123e:	781b      	ldrb	r3, [r3, #0]
    1240:	b1a3      	cbz	r3, 126c <usb_isr+0xd4>
    1242:	498c      	ldr	r1, [pc, #560]	; (1474 <usb_isr+0x2dc>)
    1244:	780a      	ldrb	r2, [r1, #0]
    1246:	f002 03ff 	and.w	r3, r2, #255	; 0xff
    124a:	b122      	cbz	r2, 1256 <usb_isr+0xbe>
    124c:	3b01      	subs	r3, #1
    124e:	b2db      	uxtb	r3, r3
    1250:	700b      	strb	r3, [r1, #0]
    1252:	b903      	cbnz	r3, 1256 <usb_isr+0xbe>
    1254:	be00      	bkpt	0x0000
    1256:	4988      	ldr	r1, [pc, #544]	; (1478 <usb_isr+0x2e0>)
    1258:	780a      	ldrb	r2, [r1, #0]
    125a:	f002 03ff 	and.w	r3, r2, #255	; 0xff
    125e:	b12a      	cbz	r2, 126c <usb_isr+0xd4>
    1260:	3b01      	subs	r3, #1
    1262:	b2db      	uxtb	r3, r3
    1264:	700b      	strb	r3, [r1, #0]
    1266:	2b00      	cmp	r3, #0
    1268:	f000 8257 	beq.w	171a <usb_isr+0x582>
    126c:	2304      	movs	r3, #4
    126e:	f88b 3000 	strb.w	r3, [fp]
    1272:	f004 0308 	and.w	r3, r4, #8
    1276:	f003 02ff 	and.w	r2, r3, #255	; 0xff
    127a:	2b00      	cmp	r3, #0
    127c:	f000 80cc 	beq.w	1418 <usb_isr+0x280>
    1280:	f89a 3000 	ldrb.w	r3, [sl]
    1284:	b2db      	uxtb	r3, r3
    1286:	091e      	lsrs	r6, r3, #4
    1288:	d18e      	bne.n	11a8 <usb_isr+0x10>
    128a:	089c      	lsrs	r4, r3, #2
    128c:	f8df 91c8 	ldr.w	r9, [pc, #456]	; 1458 <usb_isr+0x2c0>
    1290:	f859 2034 	ldr.w	r2, [r9, r4, lsl #3]
    1294:	eb09 01c4 	add.w	r1, r9, r4, lsl #3
    1298:	f3c2 0283 	ubfx	r2, r2, #2, #4
    129c:	3a01      	subs	r2, #1
    129e:	6849      	ldr	r1, [r1, #4]
    12a0:	2a0c      	cmp	r2, #12
    12a2:	f200 8088 	bhi.w	13b6 <usb_isr+0x21e>
    12a6:	e8df f002 	tbb	[pc, r2]
    12aa:	7c7c      	.short	0x7c7c
    12ac:	86868686 	.word	0x86868686
    12b0:	86478686 	.word	0x86478686
    12b4:	8686      	.short	0x8686
    12b6:	07          	.byte	0x07
    12b7:	00          	.byte	0x00
    12b8:	6808      	ldr	r0, [r1, #0]
    12ba:	4d70      	ldr	r5, [pc, #448]	; (147c <usb_isr+0x2e4>)
    12bc:	684a      	ldr	r2, [r1, #4]
    12be:	4f70      	ldr	r7, [pc, #448]	; (1480 <usb_isr+0x2e8>)
    12c0:	4e70      	ldr	r6, [pc, #448]	; (1484 <usb_isr+0x2ec>)
    12c2:	6028      	str	r0, [r5, #0]
    12c4:	b281      	uxth	r1, r0
    12c6:	f240 6081 	movw	r0, #1665	; 0x681
    12ca:	4b67      	ldr	r3, [pc, #412]	; (1468 <usb_isr+0x2d0>)
    12cc:	606a      	str	r2, [r5, #4]
    12ce:	f04f 0e01 	mov.w	lr, #1
    12d2:	2200      	movs	r2, #0
    12d4:	4281      	cmp	r1, r0
    12d6:	f849 3034 	str.w	r3, [r9, r4, lsl #3]
    12da:	603a      	str	r2, [r7, #0]
    12dc:	f8c9 2010 	str.w	r2, [r9, #16]
    12e0:	f8c9 2018 	str.w	r2, [r9, #24]
    12e4:	f886 e000 	strb.w	lr, [r6]
    12e8:	4c5b      	ldr	r4, [pc, #364]	; (1458 <usb_isr+0x2c0>)
    12ea:	f200 80e3 	bhi.w	14b4 <usb_isr+0x31c>
    12ee:	f5b1 6fd0 	cmp.w	r1, #1664	; 0x680
    12f2:	f080 8346 	bcs.w	1982 <usb_isr+0x7ea>
    12f6:	f5b1 7f81 	cmp.w	r1, #258	; 0x102
    12fa:	f000 82fc 	beq.w	18f6 <usb_isr+0x75e>
    12fe:	f200 828d 	bhi.w	181c <usb_isr+0x684>
    1302:	2980      	cmp	r1, #128	; 0x80
    1304:	f000 8377 	beq.w	19f6 <usb_isr+0x85e>
    1308:	2982      	cmp	r1, #130	; 0x82
    130a:	f040 82fa 	bne.w	1902 <usb_isr+0x76a>
    130e:	88a9      	ldrh	r1, [r5, #4]
    1310:	f001 017f 	and.w	r1, r1, #127	; 0x7f
    1314:	2904      	cmp	r1, #4
    1316:	f200 82f4 	bhi.w	1902 <usb_isr+0x76a>
    131a:	485b      	ldr	r0, [pc, #364]	; (1488 <usb_isr+0x2f0>)
    131c:	4c5b      	ldr	r4, [pc, #364]	; (148c <usb_isr+0x2f4>)
    131e:	0089      	lsls	r1, r1, #2
    1320:	4408      	add	r0, r1
    1322:	7022      	strb	r2, [r4, #0]
    1324:	7062      	strb	r2, [r4, #1]
    1326:	7802      	ldrb	r2, [r0, #0]
    1328:	0793      	lsls	r3, r2, #30
    132a:	f140 8455 	bpl.w	1bd8 <usb_isr+0xa40>
    132e:	f884 e000 	strb.w	lr, [r4]
    1332:	f04f 0e02 	mov.w	lr, #2
    1336:	e342      	b.n	19be <usb_isr+0x826>
    1338:	4f51      	ldr	r7, [pc, #324]	; (1480 <usb_isr+0x2e8>)
    133a:	683a      	ldr	r2, [r7, #0]
    133c:	b332      	cbz	r2, 138c <usb_isr+0x1f4>
    133e:	4b54      	ldr	r3, [pc, #336]	; (1490 <usb_isr+0x2f8>)
    1340:	4e50      	ldr	r6, [pc, #320]	; (1484 <usb_isr+0x2ec>)
    1342:	4954      	ldr	r1, [pc, #336]	; (1494 <usb_isr+0x2fc>)
    1344:	8818      	ldrh	r0, [r3, #0]
    1346:	7834      	ldrb	r4, [r6, #0]
    1348:	780d      	ldrb	r5, [r1, #0]
    134a:	2840      	cmp	r0, #64	; 0x40
    134c:	4686      	mov	lr, r0
    134e:	f045 0802 	orr.w	r8, r5, #2
    1352:	bf28      	it	cs
    1354:	f04f 0e40 	movcs.w	lr, #64	; 0x40
    1358:	2c00      	cmp	r4, #0
    135a:	f084 0401 	eor.w	r4, r4, #1
    135e:	7034      	strb	r4, [r6, #0]
    1360:	ebce 0000 	rsb	r0, lr, r0
    1364:	bf0c      	ite	eq
    1366:	2488      	moveq	r4, #136	; 0x88
    1368:	24c8      	movne	r4, #200	; 0xc8
    136a:	eb09 06c8 	add.w	r6, r9, r8, lsl #3
    136e:	b280      	uxth	r0, r0
    1370:	f085 0501 	eor.w	r5, r5, #1
    1374:	ea44 440e 	orr.w	r4, r4, lr, lsl #16
    1378:	6072      	str	r2, [r6, #4]
    137a:	8018      	strh	r0, [r3, #0]
    137c:	f849 4038 	str.w	r4, [r9, r8, lsl #3]
    1380:	4472      	add	r2, lr
    1382:	700d      	strb	r5, [r1, #0]
    1384:	2800      	cmp	r0, #0
    1386:	f000 8145 	beq.w	1614 <usb_isr+0x47c>
    138a:	603a      	str	r2, [r7, #0]
    138c:	4b3b      	ldr	r3, [pc, #236]	; (147c <usb_isr+0x2e4>)
    138e:	881a      	ldrh	r2, [r3, #0]
    1390:	f5b2 6fa0 	cmp.w	r2, #1280	; 0x500
    1394:	d10f      	bne.n	13b6 <usb_isr+0x21e>
    1396:	2100      	movs	r1, #0
    1398:	789a      	ldrb	r2, [r3, #2]
    139a:	7059      	strb	r1, [r3, #1]
    139c:	4b3e      	ldr	r3, [pc, #248]	; (1498 <usb_isr+0x300>)
    139e:	701a      	strb	r2, [r3, #0]
    13a0:	e009      	b.n	13b6 <usb_isr+0x21e>
    13a2:	4a36      	ldr	r2, [pc, #216]	; (147c <usb_isr+0x2e4>)
    13a4:	8810      	ldrh	r0, [r2, #0]
    13a6:	f242 0221 	movw	r2, #8225	; 0x2021
    13aa:	4290      	cmp	r0, r2
    13ac:	f000 8137 	beq.w	161e <usb_isr+0x486>
    13b0:	4a2d      	ldr	r2, [pc, #180]	; (1468 <usb_isr+0x2d0>)
    13b2:	f849 2034 	str.w	r2, [r9, r4, lsl #3]
    13b6:	4a39      	ldr	r2, [pc, #228]	; (149c <usb_isr+0x304>)
    13b8:	2301      	movs	r3, #1
    13ba:	7013      	strb	r3, [r2, #0]
    13bc:	e736      	b.n	122c <usb_isr+0x94>
    13be:	4a2a      	ldr	r2, [pc, #168]	; (1468 <usb_isr+0x2d0>)
    13c0:	4b2a      	ldr	r3, [pc, #168]	; (146c <usb_isr+0x2d4>)
    13c2:	f019 0f08 	tst.w	r9, #8
    13c6:	bf18      	it	ne
    13c8:	4613      	movne	r3, r2
    13ca:	f847 3038 	str.w	r3, [r7, r8, lsl #3]
    13ce:	e72d      	b.n	122c <usb_isr+0x94>
    13d0:	f000 fcde 	bl	1d90 <usb_free>
    13d4:	4a32      	ldr	r2, [pc, #200]	; (14a0 <usb_isr+0x308>)
    13d6:	4933      	ldr	r1, [pc, #204]	; (14a4 <usb_isr+0x30c>)
    13d8:	f852 3026 	ldr.w	r3, [r2, r6, lsl #2]
    13dc:	2b00      	cmp	r3, #0
    13de:	f000 81d1 	beq.w	1784 <usb_isr+0x5ec>
    13e2:	6858      	ldr	r0, [r3, #4]
    13e4:	5d8c      	ldrb	r4, [r1, r6]
    13e6:	f842 0026 	str.w	r0, [r2, r6, lsl #2]
    13ea:	f103 0208 	add.w	r2, r3, #8
    13ee:	f8c9 2004 	str.w	r2, [r9, #4]
    13f2:	2c03      	cmp	r4, #3
    13f4:	d805      	bhi.n	1402 <usb_isr+0x26a>
    13f6:	e8df f004 	tbb	[pc, r4]
    13fa:	022c      	.short	0x022c
    13fc:	2629      	.short	0x2629
    13fe:	2202      	movs	r2, #2
    1400:	558a      	strb	r2, [r1, r6]
    1402:	881a      	ldrh	r2, [r3, #0]
    1404:	f019 0f08 	tst.w	r9, #8
    1408:	bf0c      	ite	eq
    140a:	2388      	moveq	r3, #136	; 0x88
    140c:	23c8      	movne	r3, #200	; 0xc8
    140e:	ea43 4302 	orr.w	r3, r3, r2, lsl #16
    1412:	f847 3038 	str.w	r3, [r7, r8, lsl #3]
    1416:	e709      	b.n	122c <usb_isr+0x94>
    1418:	07e0      	lsls	r0, r4, #31
    141a:	f100 8181 	bmi.w	1720 <usb_isr+0x588>
    141e:	0621      	lsls	r1, r4, #24
    1420:	f100 81f2 	bmi.w	1808 <usb_isr+0x670>
    1424:	07a2      	lsls	r2, r4, #30
    1426:	d506      	bpl.n	1436 <usb_isr+0x29e>
    1428:	4a1f      	ldr	r2, [pc, #124]	; (14a8 <usb_isr+0x310>)
    142a:	4920      	ldr	r1, [pc, #128]	; (14ac <usb_isr+0x314>)
    142c:	7813      	ldrb	r3, [r2, #0]
    142e:	2002      	movs	r0, #2
    1430:	b2db      	uxtb	r3, r3
    1432:	7013      	strb	r3, [r2, #0]
    1434:	7008      	strb	r0, [r1, #0]
    1436:	06e3      	lsls	r3, r4, #27
    1438:	d502      	bpl.n	1440 <usb_isr+0x2a8>
    143a:	4b1c      	ldr	r3, [pc, #112]	; (14ac <usb_isr+0x314>)
    143c:	2210      	movs	r2, #16
    143e:	701a      	strb	r2, [r3, #0]
    1440:	b007      	add	sp, #28
    1442:	e8bd 8ff0 	ldmia.w	sp!, {r4, r5, r6, r7, r8, r9, sl, fp, pc}
    1446:	2204      	movs	r2, #4
    1448:	558a      	strb	r2, [r1, r6]
    144a:	e7da      	b.n	1402 <usb_isr+0x26a>
    144c:	2205      	movs	r2, #5
    144e:	558a      	strb	r2, [r1, r6]
    1450:	e7d7      	b.n	1402 <usb_isr+0x26a>
    1452:	2203      	movs	r2, #3
    1454:	558a      	strb	r2, [r1, r6]
    1456:	e7d4      	b.n	1402 <usb_isr+0x26a>
    1458:	1fff8000 	.word	0x1fff8000
    145c:	1fff9570 	.word	0x1fff9570
    1460:	1fff951c 	.word	0x1fff951c
    1464:	1fff97f4 	.word	0x1fff97f4
    1468:	004000c8 	.word	0x004000c8
    146c:	00400088 	.word	0x00400088
    1470:	1fff95f8 	.word	0x1fff95f8
    1474:	1fff9581 	.word	0x1fff9581
    1478:	1fff9600 	.word	0x1fff9600
    147c:	1fff95e4 	.word	0x1fff95e4
    1480:	1fff9518 	.word	0x1fff9518
    1484:	1fff9580 	.word	0x1fff9580
    1488:	400720c0 	.word	0x400720c0
    148c:	1fff95f0 	.word	0x1fff95f0
    1490:	1fff952c 	.word	0x1fff952c
    1494:	1fff95ec 	.word	0x1fff95ec
    1498:	40072098 	.word	0x40072098
    149c:	40072094 	.word	0x40072094
    14a0:	1fff95c4 	.word	0x1fff95c4
    14a4:	1fff95fc 	.word	0x1fff95fc
    14a8:	40072088 	.word	0x40072088
    14ac:	40072080 	.word	0x40072080
    14b0:	40072090 	.word	0x40072090
    14b4:	f242 0021 	movw	r0, #8225	; 0x2021
    14b8:	4281      	cmp	r1, r0
    14ba:	f000 812a 	beq.w	1712 <usb_isr+0x57a>
    14be:	f200 80d8 	bhi.w	1672 <usb_isr+0x4da>
    14c2:	f5b1 6f08 	cmp.w	r1, #2176	; 0x880
    14c6:	f000 8276 	beq.w	19b6 <usb_isr+0x81e>
    14ca:	f5b1 6f10 	cmp.w	r1, #2304	; 0x900
    14ce:	f040 8218 	bne.w	1902 <usb_isr+0x76a>
    14d2:	6a22      	ldr	r2, [r4, #32]
    14d4:	49b3      	ldr	r1, [pc, #716]	; (17a4 <usb_isr+0x60c>)
    14d6:	78a8      	ldrb	r0, [r5, #2]
    14d8:	7008      	strb	r0, [r1, #0]
    14da:	0612      	lsls	r2, r2, #24
    14dc:	f100 8337 	bmi.w	1b4e <usb_isr+0x9b6>
    14e0:	f8d9 2028 	ldr.w	r2, [r9, #40]	; 0x28
    14e4:	49b0      	ldr	r1, [pc, #704]	; (17a8 <usb_isr+0x610>)
    14e6:	0613      	lsls	r3, r2, #24
    14e8:	f100 832c 	bmi.w	1b44 <usb_isr+0x9ac>
    14ec:	f8d9 2030 	ldr.w	r2, [r9, #48]	; 0x30
    14f0:	49ad      	ldr	r1, [pc, #692]	; (17a8 <usb_isr+0x610>)
    14f2:	0615      	lsls	r5, r2, #24
    14f4:	f100 82ff 	bmi.w	1af6 <usb_isr+0x95e>
    14f8:	f8d9 2038 	ldr.w	r2, [r9, #56]	; 0x38
    14fc:	49aa      	ldr	r1, [pc, #680]	; (17a8 <usb_isr+0x610>)
    14fe:	0614      	lsls	r4, r2, #24
    1500:	f100 82f4 	bmi.w	1aec <usb_isr+0x954>
    1504:	f8d9 2040 	ldr.w	r2, [r9, #64]	; 0x40
    1508:	49a7      	ldr	r1, [pc, #668]	; (17a8 <usb_isr+0x610>)
    150a:	0610      	lsls	r0, r2, #24
    150c:	f100 8347 	bmi.w	1b9e <usb_isr+0xa06>
    1510:	f8d9 2048 	ldr.w	r2, [r9, #72]	; 0x48
    1514:	49a4      	ldr	r1, [pc, #656]	; (17a8 <usb_isr+0x610>)
    1516:	0612      	lsls	r2, r2, #24
    1518:	f100 833c 	bmi.w	1b94 <usb_isr+0x9fc>
    151c:	f8d9 2050 	ldr.w	r2, [r9, #80]	; 0x50
    1520:	49a1      	ldr	r1, [pc, #644]	; (17a8 <usb_isr+0x610>)
    1522:	0613      	lsls	r3, r2, #24
    1524:	f100 8331 	bmi.w	1b8a <usb_isr+0x9f2>
    1528:	f8d9 2058 	ldr.w	r2, [r9, #88]	; 0x58
    152c:	499e      	ldr	r1, [pc, #632]	; (17a8 <usb_isr+0x610>)
    152e:	0615      	lsls	r5, r2, #24
    1530:	f100 8326 	bmi.w	1b80 <usb_isr+0x9e8>
    1534:	f8d9 2060 	ldr.w	r2, [r9, #96]	; 0x60
    1538:	499b      	ldr	r1, [pc, #620]	; (17a8 <usb_isr+0x610>)
    153a:	0614      	lsls	r4, r2, #24
    153c:	f100 831b 	bmi.w	1b76 <usb_isr+0x9de>
    1540:	f8d9 2068 	ldr.w	r2, [r9, #104]	; 0x68
    1544:	4998      	ldr	r1, [pc, #608]	; (17a8 <usb_isr+0x610>)
    1546:	0610      	lsls	r0, r2, #24
    1548:	f100 8310 	bmi.w	1b6c <usb_isr+0x9d4>
    154c:	f8d9 2070 	ldr.w	r2, [r9, #112]	; 0x70
    1550:	4995      	ldr	r1, [pc, #596]	; (17a8 <usb_isr+0x610>)
    1552:	0612      	lsls	r2, r2, #24
    1554:	f100 8305 	bmi.w	1b62 <usb_isr+0x9ca>
    1558:	f8d9 2078 	ldr.w	r2, [r9, #120]	; 0x78
    155c:	4992      	ldr	r1, [pc, #584]	; (17a8 <usb_isr+0x610>)
    155e:	0613      	lsls	r3, r2, #24
    1560:	f100 82fa 	bmi.w	1b58 <usb_isr+0x9c0>
    1564:	f8d9 2080 	ldr.w	r2, [r9, #128]	; 0x80
    1568:	498f      	ldr	r1, [pc, #572]	; (17a8 <usb_isr+0x610>)
    156a:	0615      	lsls	r5, r2, #24
    156c:	f100 832e 	bmi.w	1bcc <usb_isr+0xa34>
    1570:	f8d9 2088 	ldr.w	r2, [r9, #136]	; 0x88
    1574:	498c      	ldr	r1, [pc, #560]	; (17a8 <usb_isr+0x610>)
    1576:	0614      	lsls	r4, r2, #24
    1578:	f100 8322 	bmi.w	1bc0 <usb_isr+0xa28>
    157c:	f8d9 2090 	ldr.w	r2, [r9, #144]	; 0x90
    1580:	4989      	ldr	r1, [pc, #548]	; (17a8 <usb_isr+0x610>)
    1582:	0610      	lsls	r0, r2, #24
    1584:	f100 8316 	bmi.w	1bb4 <usb_isr+0xa1c>
    1588:	f8d9 2098 	ldr.w	r2, [r9, #152]	; 0x98
    158c:	4986      	ldr	r1, [pc, #536]	; (17a8 <usb_isr+0x610>)
    158e:	0612      	lsls	r2, r2, #24
    1590:	f100 830a 	bmi.w	1ba8 <usb_isr+0xa10>
    1594:	4885      	ldr	r0, [pc, #532]	; (17ac <usb_isr+0x614>)
    1596:	4a86      	ldr	r2, [pc, #536]	; (17b0 <usb_isr+0x618>)
    1598:	4986      	ldr	r1, [pc, #536]	; (17b4 <usb_isr+0x61c>)
    159a:	9001      	str	r0, [sp, #4]
    159c:	4886      	ldr	r0, [pc, #536]	; (17b8 <usb_isr+0x620>)
    159e:	4c87      	ldr	r4, [pc, #540]	; (17bc <usb_isr+0x624>)
    15a0:	4d87      	ldr	r5, [pc, #540]	; (17c0 <usb_isr+0x628>)
    15a2:	9402      	str	r4, [sp, #8]
    15a4:	2300      	movs	r3, #0
    15a6:	9704      	str	r7, [sp, #16]
    15a8:	9605      	str	r6, [sp, #20]
    15aa:	4680      	mov	r8, r0
    15ac:	461c      	mov	r4, r3
    15ae:	460f      	mov	r7, r1
    15b0:	4616      	mov	r6, r2
    15b2:	9503      	str	r5, [sp, #12]
    15b4:	6830      	ldr	r0, [r6, #0]
    15b6:	b128      	cbz	r0, 15c4 <usb_isr+0x42c>
    15b8:	6845      	ldr	r5, [r0, #4]
    15ba:	f000 fbe9 	bl	1d90 <usb_free>
    15be:	4628      	mov	r0, r5
    15c0:	2d00      	cmp	r5, #0
    15c2:	d1f9      	bne.n	15b8 <usb_isr+0x420>
    15c4:	2300      	movs	r3, #0
    15c6:	6033      	str	r3, [r6, #0]
    15c8:	9b03      	ldr	r3, [sp, #12]
    15ca:	6838      	ldr	r0, [r7, #0]
    15cc:	461a      	mov	r2, r3
    15ce:	2300      	movs	r3, #0
    15d0:	f842 3024 	str.w	r3, [r2, r4, lsl #2]
    15d4:	b128      	cbz	r0, 15e2 <usb_isr+0x44a>
    15d6:	6845      	ldr	r5, [r0, #4]
    15d8:	f000 fbda 	bl	1d90 <usb_free>
    15dc:	4628      	mov	r0, r5
    15de:	2d00      	cmp	r5, #0
    15e0:	d1f9      	bne.n	15d6 <usb_isr+0x43e>
    15e2:	2200      	movs	r2, #0
    15e4:	603a      	str	r2, [r7, #0]
    15e6:	9a01      	ldr	r2, [sp, #4]
    15e8:	f898 3000 	ldrb.w	r3, [r8]
    15ec:	4611      	mov	r1, r2
    15ee:	2200      	movs	r2, #0
    15f0:	f841 2b04 	str.w	r2, [r1], #4
    15f4:	9a02      	ldr	r2, [sp, #8]
    15f6:	9101      	str	r1, [sp, #4]
    15f8:	3b02      	subs	r3, #2
    15fa:	f04f 0100 	mov.w	r1, #0
    15fe:	f822 1014 	strh.w	r1, [r2, r4, lsl #1]
    1602:	2b03      	cmp	r3, #3
    1604:	f200 812b 	bhi.w	185e <usb_isr+0x6c6>
    1608:	e8df f013 	tbh	[pc, r3, lsl #1]
    160c:	01250170 	.word	0x01250170
    1610:	01250170 	.word	0x01250170
    1614:	f1be 0f40 	cmp.w	lr, #64	; 0x40
    1618:	bf18      	it	ne
    161a:	2200      	movne	r2, #0
    161c:	e6b5      	b.n	138a <usb_isr+0x1f2>
    161e:	4a69      	ldr	r2, [pc, #420]	; (17c4 <usb_isr+0x62c>)
    1620:	780d      	ldrb	r5, [r1, #0]
    1622:	7848      	ldrb	r0, [r1, #1]
    1624:	7015      	strb	r5, [r2, #0]
    1626:	7050      	strb	r0, [r2, #1]
    1628:	788d      	ldrb	r5, [r1, #2]
    162a:	78c8      	ldrb	r0, [r1, #3]
    162c:	7095      	strb	r5, [r2, #2]
    162e:	70d0      	strb	r0, [r2, #3]
    1630:	6810      	ldr	r0, [r2, #0]
    1632:	790d      	ldrb	r5, [r1, #4]
    1634:	7115      	strb	r5, [r2, #4]
    1636:	2886      	cmp	r0, #134	; 0x86
    1638:	794d      	ldrb	r5, [r1, #5]
    163a:	7989      	ldrb	r1, [r1, #6]
    163c:	7155      	strb	r5, [r2, #5]
    163e:	7191      	strb	r1, [r2, #6]
    1640:	f000 819b 	beq.w	197a <usb_isr+0x7e2>
    1644:	4960      	ldr	r1, [pc, #384]	; (17c8 <usb_isr+0x630>)
    1646:	4e61      	ldr	r6, [pc, #388]	; (17cc <usb_isr+0x634>)
    1648:	780a      	ldrb	r2, [r1, #0]
    164a:	7830      	ldrb	r0, [r6, #0]
    164c:	f082 0501 	eor.w	r5, r2, #1
    1650:	2800      	cmp	r0, #0
    1652:	f042 0202 	orr.w	r2, r2, #2
    1656:	700d      	strb	r5, [r1, #0]
    1658:	bf0c      	ite	eq
    165a:	2188      	moveq	r1, #136	; 0x88
    165c:	21c8      	movne	r1, #200	; 0xc8
    165e:	f849 1032 	str.w	r1, [r9, r2, lsl #3]
    1662:	eb09 02c2 	add.w	r2, r9, r2, lsl #3
    1666:	f080 0001 	eor.w	r0, r0, #1
    166a:	2100      	movs	r1, #0
    166c:	7030      	strb	r0, [r6, #0]
    166e:	6051      	str	r1, [r2, #4]
    1670:	e69e      	b.n	13b0 <usb_isr+0x218>
    1672:	f242 2021 	movw	r0, #8737	; 0x2221
    1676:	4281      	cmp	r1, r0
    1678:	f040 81cb 	bne.w	1a12 <usb_isr+0x87a>
    167c:	4b54      	ldr	r3, [pc, #336]	; (17d0 <usb_isr+0x638>)
    167e:	4c55      	ldr	r4, [pc, #340]	; (17d4 <usb_isr+0x63c>)
    1680:	4955      	ldr	r1, [pc, #340]	; (17d8 <usb_isr+0x640>)
    1682:	78a8      	ldrb	r0, [r5, #2]
    1684:	681d      	ldr	r5, [r3, #0]
    1686:	6025      	str	r5, [r4, #0]
    1688:	f8cd e004 	str.w	lr, [sp, #4]
    168c:	7008      	strb	r0, [r1, #0]
    168e:	2000      	movs	r0, #0
    1690:	9002      	str	r0, [sp, #8]
    1692:	4680      	mov	r8, r0
    1694:	4684      	mov	ip, r0
    1696:	4604      	mov	r4, r0
    1698:	494b      	ldr	r1, [pc, #300]	; (17c8 <usb_isr+0x630>)
    169a:	780d      	ldrb	r5, [r1, #0]
    169c:	f045 0e02 	orr.w	lr, r5, #2
    16a0:	eb09 03ce 	add.w	r3, r9, lr, lsl #3
    16a4:	9303      	str	r3, [sp, #12]
    16a6:	9b01      	ldr	r3, [sp, #4]
    16a8:	2b00      	cmp	r3, #0
    16aa:	9b03      	ldr	r3, [sp, #12]
    16ac:	605c      	str	r4, [r3, #4]
    16ae:	bf0c      	ite	eq
    16b0:	2488      	moveq	r4, #136	; 0x88
    16b2:	24c8      	movne	r4, #200	; 0xc8
    16b4:	ea44 0308 	orr.w	r3, r4, r8
    16b8:	f085 0401 	eor.w	r4, r5, #1
    16bc:	f849 303e 	str.w	r3, [r9, lr, lsl #3]
    16c0:	7032      	strb	r2, [r6, #0]
    16c2:	700c      	strb	r4, [r1, #0]
    16c4:	f8df e0e0 	ldr.w	lr, [pc, #224]	; 17a8 <usb_isr+0x610>
    16c8:	4b40      	ldr	r3, [pc, #256]	; (17cc <usb_isr+0x634>)
    16ca:	f8df 80fc 	ldr.w	r8, [pc, #252]	; 17c8 <usb_isr+0x630>
    16ce:	2800      	cmp	r0, #0
    16d0:	f040 811e 	bne.w	1910 <usb_isr+0x778>
    16d4:	f1bc 0f40 	cmp.w	ip, #64	; 0x40
    16d8:	d11b      	bne.n	1712 <usb_isr+0x57a>
    16da:	f044 0c02 	orr.w	ip, r4, #2
    16de:	eb09 03cc 	add.w	r3, r9, ip, lsl #3
    16e2:	9c02      	ldr	r4, [sp, #8]
    16e4:	f8df e0c0 	ldr.w	lr, [pc, #192]	; 17a8 <usb_isr+0x610>
    16e8:	605c      	str	r4, [r3, #4]
    16ea:	2a00      	cmp	r2, #0
    16ec:	f040 8126 	bne.w	193c <usb_isr+0x7a4>
    16f0:	0402      	lsls	r2, r0, #16
    16f2:	f042 0288 	orr.w	r2, r2, #136	; 0x88
    16f6:	f89d 3004 	ldrb.w	r3, [sp, #4]
    16fa:	f84e 203c 	str.w	r2, [lr, ip, lsl #3]
    16fe:	4404      	add	r4, r0
    1700:	7033      	strb	r3, [r6, #0]
    1702:	700d      	strb	r5, [r1, #0]
    1704:	4623      	mov	r3, r4
    1706:	2840      	cmp	r0, #64	; 0x40
    1708:	d103      	bne.n	1712 <usb_isr+0x57a>
    170a:	2000      	movs	r0, #0
    170c:	4a33      	ldr	r2, [pc, #204]	; (17dc <usb_isr+0x644>)
    170e:	603b      	str	r3, [r7, #0]
    1710:	8010      	strh	r0, [r2, #0]
    1712:	4a33      	ldr	r2, [pc, #204]	; (17e0 <usb_isr+0x648>)
    1714:	2301      	movs	r3, #1
    1716:	7013      	strb	r3, [r2, #0]
    1718:	e64d      	b.n	13b6 <usb_isr+0x21e>
    171a:	f000 fcf5 	bl	2108 <usb_serial_flush_callback>
    171e:	e5a5      	b.n	126c <usb_isr+0xd4>
    1720:	4b21      	ldr	r3, [pc, #132]	; (17a8 <usb_isr+0x610>)
    1722:	482f      	ldr	r0, [pc, #188]	; (17e0 <usb_isr+0x648>)
    1724:	4928      	ldr	r1, [pc, #160]	; (17c8 <usb_isr+0x630>)
    1726:	611a      	str	r2, [r3, #16]
    1728:	f04f 0e02 	mov.w	lr, #2
    172c:	f880 e000 	strb.w	lr, [r0]
    1730:	4f2c      	ldr	r7, [pc, #176]	; (17e4 <usb_isr+0x64c>)
    1732:	700a      	strb	r2, [r1, #0]
    1734:	492c      	ldr	r1, [pc, #176]	; (17e8 <usb_isr+0x650>)
    1736:	6019      	str	r1, [r3, #0]
    1738:	6099      	str	r1, [r3, #8]
    173a:	4e2c      	ldr	r6, [pc, #176]	; (17ec <usb_isr+0x654>)
    173c:	4d2c      	ldr	r5, [pc, #176]	; (17f0 <usb_isr+0x658>)
    173e:	4c2d      	ldr	r4, [pc, #180]	; (17f4 <usb_isr+0x65c>)
    1740:	619a      	str	r2, [r3, #24]
    1742:	210d      	movs	r1, #13
    1744:	7039      	strb	r1, [r7, #0]
    1746:	21ff      	movs	r1, #255	; 0xff
    1748:	7031      	strb	r1, [r6, #0]
    174a:	f8df e0b8 	ldr.w	lr, [pc, #184]	; 1804 <usb_isr+0x66c>
    174e:	7029      	strb	r1, [r5, #0]
    1750:	7022      	strb	r2, [r4, #0]
    1752:	4d29      	ldr	r5, [pc, #164]	; (17f8 <usb_isr+0x660>)
    1754:	4a29      	ldr	r2, [pc, #164]	; (17fc <usb_isr+0x664>)
    1756:	f88e 1000 	strb.w	r1, [lr]
    175a:	279f      	movs	r7, #159	; 0x9f
    175c:	2401      	movs	r4, #1
    175e:	f806 7c04 	strb.w	r7, [r6, #-4]
    1762:	605d      	str	r5, [r3, #4]
    1764:	7004      	strb	r4, [r0, #0]
    1766:	60da      	str	r2, [r3, #12]
    1768:	b007      	add	sp, #28
    176a:	e8bd 8ff0 	ldmia.w	sp!, {r4, r5, r6, r7, r8, r9, sl, fp, pc}
    176e:	4a24      	ldr	r2, [pc, #144]	; (1800 <usb_isr+0x668>)
    1770:	f847 0038 	str.w	r0, [r7, r8, lsl #3]
    1774:	7813      	ldrb	r3, [r2, #0]
    1776:	3301      	adds	r3, #1
    1778:	7013      	strb	r3, [r2, #0]
    177a:	e557      	b.n	122c <usb_isr+0x94>
    177c:	f843 0026 	str.w	r0, [r3, r6, lsl #2]
    1780:	4d0f      	ldr	r5, [pc, #60]	; (17c0 <usb_isr+0x628>)
    1782:	e53a      	b.n	11fa <usb_isr+0x62>
    1784:	5d8b      	ldrb	r3, [r1, r6]
    1786:	2b03      	cmp	r3, #3
    1788:	f200 80f0 	bhi.w	196c <usb_isr+0x7d4>
    178c:	a201      	add	r2, pc, #4	; (adr r2, 1794 <usb_isr+0x5fc>)
    178e:	f852 f023 	ldr.w	pc, [r2, r3, lsl #2]
    1792:	bf00      	nop
    1794:	0000122d 	.word	0x0000122d
    1798:	0000122d 	.word	0x0000122d
    179c:	00001851 	.word	0x00001851
    17a0:	0000184b 	.word	0x0000184b
    17a4:	1fff95f8 	.word	0x1fff95f8
    17a8:	1fff8000 	.word	0x1fff8000
    17ac:	1fff95d4 	.word	0x1fff95d4
    17b0:	1fff9570 	.word	0x1fff9570
    17b4:	1fff95c4 	.word	0x1fff95c4
    17b8:	1fff95fc 	.word	0x1fff95fc
    17bc:	1fff97f4 	.word	0x1fff97f4
    17c0:	1fff951c 	.word	0x1fff951c
    17c4:	1fff97fc 	.word	0x1fff97fc
    17c8:	1fff95ec 	.word	0x1fff95ec
    17cc:	1fff9580 	.word	0x1fff9580
    17d0:	1fff9514 	.word	0x1fff9514
    17d4:	1fff9804 	.word	0x1fff9804
    17d8:	1fff9610 	.word	0x1fff9610
    17dc:	1fff952c 	.word	0x1fff952c
    17e0:	40072094 	.word	0x40072094
    17e4:	400720c0 	.word	0x400720c0
    17e8:	00400088 	.word	0x00400088
    17ec:	40072088 	.word	0x40072088
    17f0:	40072080 	.word	0x40072080
    17f4:	40072098 	.word	0x40072098
    17f8:	1fff9530 	.word	0x1fff9530
    17fc:	1fff9584 	.word	0x1fff9584
    1800:	1fff95ed 	.word	0x1fff95ed
    1804:	4007208c 	.word	0x4007208c
    1808:	49bd      	ldr	r1, [pc, #756]	; (1b00 <usb_isr+0x968>)
    180a:	4bbe      	ldr	r3, [pc, #760]	; (1b04 <usb_isr+0x96c>)
    180c:	2280      	movs	r2, #128	; 0x80
    180e:	200d      	movs	r0, #13
    1810:	7008      	strb	r0, [r1, #0]
    1812:	701a      	strb	r2, [r3, #0]
    1814:	07a2      	lsls	r2, r4, #30
    1816:	f57f ae0e 	bpl.w	1436 <usb_isr+0x29e>
    181a:	e605      	b.n	1428 <usb_isr+0x290>
    181c:	f240 3202 	movw	r2, #770	; 0x302
    1820:	4291      	cmp	r1, r2
    1822:	f040 80ee 	bne.w	1a02 <usb_isr+0x86a>
    1826:	88a9      	ldrh	r1, [r5, #4]
    1828:	f001 017f 	and.w	r1, r1, #127	; 0x7f
    182c:	2904      	cmp	r1, #4
    182e:	d868      	bhi.n	1902 <usb_isr+0x76a>
    1830:	886a      	ldrh	r2, [r5, #2]
    1832:	2a00      	cmp	r2, #0
    1834:	d165      	bne.n	1902 <usb_isr+0x76a>
    1836:	48b2      	ldr	r0, [pc, #712]	; (1b00 <usb_isr+0x968>)
    1838:	f8cd e004 	str.w	lr, [sp, #4]
    183c:	0089      	lsls	r1, r1, #2
    183e:	4408      	add	r0, r1
    1840:	7801      	ldrb	r1, [r0, #0]
    1842:	f041 0102 	orr.w	r1, r1, #2
    1846:	7001      	strb	r1, [r0, #0]
    1848:	e721      	b.n	168e <usb_isr+0x4f6>
    184a:	2301      	movs	r3, #1
    184c:	558b      	strb	r3, [r1, r6]
    184e:	e4ed      	b.n	122c <usb_isr+0x94>
    1850:	2300      	movs	r3, #0
    1852:	558b      	strb	r3, [r1, r6]
    1854:	e4ea      	b.n	122c <usb_isr+0x94>
    1856:	f04f 0301 	mov.w	r3, #1
    185a:	f888 3000 	strb.w	r3, [r8]
    185e:	3401      	adds	r4, #1
    1860:	2c04      	cmp	r4, #4
    1862:	f106 0604 	add.w	r6, r6, #4
    1866:	f107 0704 	add.w	r7, r7, #4
    186a:	f108 0801 	add.w	r8, r8, #1
    186e:	f47f aea1 	bne.w	15b4 <usb_isr+0x41c>
    1872:	4ca5      	ldr	r4, [pc, #660]	; (1b08 <usb_isr+0x970>)
    1874:	4ba5      	ldr	r3, [pc, #660]	; (1b0c <usb_isr+0x974>)
    1876:	7822      	ldrb	r2, [r4, #0]
    1878:	4da5      	ldr	r5, [pc, #660]	; (1b10 <usb_isr+0x978>)
    187a:	9f04      	ldr	r7, [sp, #16]
    187c:	9e05      	ldr	r6, [sp, #20]
    187e:	2100      	movs	r1, #0
    1880:	7029      	strb	r1, [r5, #0]
    1882:	701a      	strb	r2, [r3, #0]
    1884:	0713      	lsls	r3, r2, #28
    1886:	f100 8105 	bmi.w	1a94 <usb_isr+0x8fc>
    188a:	7862      	ldrb	r2, [r4, #1]
    188c:	49a1      	ldr	r1, [pc, #644]	; (1b14 <usb_isr+0x97c>)
    188e:	f8df 8290 	ldr.w	r8, [pc, #656]	; 1b20 <usb_isr+0x988>
    1892:	700a      	strb	r2, [r1, #0]
    1894:	0710      	lsls	r0, r2, #28
    1896:	f04f 0100 	mov.w	r1, #0
    189a:	f8c9 1030 	str.w	r1, [r9, #48]	; 0x30
    189e:	f8c9 1038 	str.w	r1, [r9, #56]	; 0x38
    18a2:	f100 80e1 	bmi.w	1a68 <usb_isr+0x8d0>
    18a6:	499c      	ldr	r1, [pc, #624]	; (1b18 <usb_isr+0x980>)
    18a8:	78a2      	ldrb	r2, [r4, #2]
    18aa:	700a      	strb	r2, [r1, #0]
    18ac:	2100      	movs	r1, #0
    18ae:	f8c9 1050 	str.w	r1, [r9, #80]	; 0x50
    18b2:	f8c9 1058 	str.w	r1, [r9, #88]	; 0x58
    18b6:	0711      	lsls	r1, r2, #28
    18b8:	f8df 8264 	ldr.w	r8, [pc, #612]	; 1b20 <usb_isr+0x988>
    18bc:	f100 8100 	bmi.w	1ac0 <usb_isr+0x928>
    18c0:	78e2      	ldrb	r2, [r4, #3]
    18c2:	4996      	ldr	r1, [pc, #600]	; (1b1c <usb_isr+0x984>)
    18c4:	4c96      	ldr	r4, [pc, #600]	; (1b20 <usb_isr+0x988>)
    18c6:	700a      	strb	r2, [r1, #0]
    18c8:	2100      	movs	r1, #0
    18ca:	0712      	lsls	r2, r2, #28
    18cc:	f8c9 1070 	str.w	r1, [r9, #112]	; 0x70
    18d0:	f8c9 1078 	str.w	r1, [r9, #120]	; 0x78
    18d4:	f100 80b0 	bmi.w	1a38 <usb_isr+0x8a0>
    18d8:	7833      	ldrb	r3, [r6, #0]
    18da:	9301      	str	r3, [sp, #4]
    18dc:	2100      	movs	r1, #0
    18de:	f083 0201 	eor.w	r2, r3, #1
    18e2:	f8c9 1090 	str.w	r1, [r9, #144]	; 0x90
    18e6:	f8c9 1098 	str.w	r1, [r9, #152]	; 0x98
    18ea:	e6d0      	b.n	168e <usb_isr+0x4f6>
    18ec:	f04f 0300 	mov.w	r3, #0
    18f0:	f888 3000 	strb.w	r3, [r8]
    18f4:	e7b3      	b.n	185e <usb_isr+0x6c6>
    18f6:	88a9      	ldrh	r1, [r5, #4]
    18f8:	f001 017f 	and.w	r1, r1, #127	; 0x7f
    18fc:	2904      	cmp	r1, #4
    18fe:	f240 808d 	bls.w	1a1c <usb_isr+0x884>
    1902:	4a7f      	ldr	r2, [pc, #508]	; (1b00 <usb_isr+0x968>)
    1904:	230f      	movs	r3, #15
    1906:	7013      	strb	r3, [r2, #0]
    1908:	4a86      	ldr	r2, [pc, #536]	; (1b24 <usb_isr+0x98c>)
    190a:	2301      	movs	r3, #1
    190c:	7013      	strb	r3, [r2, #0]
    190e:	e552      	b.n	13b6 <usb_isr+0x21e>
    1910:	2840      	cmp	r0, #64	; 0x40
    1912:	f67f aee2 	bls.w	16da <usb_isr+0x542>
    1916:	f044 0402 	orr.w	r4, r4, #2
    191a:	eb0e 01c4 	add.w	r1, lr, r4, lsl #3
    191e:	9e02      	ldr	r6, [sp, #8]
    1920:	604e      	str	r6, [r1, #4]
    1922:	b1ba      	cbz	r2, 1954 <usb_isr+0x7bc>
    1924:	f89d 1004 	ldrb.w	r1, [sp, #4]
    1928:	4a7f      	ldr	r2, [pc, #508]	; (1b28 <usb_isr+0x990>)
    192a:	7019      	strb	r1, [r3, #0]
    192c:	4633      	mov	r3, r6
    192e:	3840      	subs	r0, #64	; 0x40
    1930:	f888 5000 	strb.w	r5, [r8]
    1934:	3340      	adds	r3, #64	; 0x40
    1936:	f84e 2034 	str.w	r2, [lr, r4, lsl #3]
    193a:	e6e7      	b.n	170c <usb_isr+0x574>
    193c:	f89d 3004 	ldrb.w	r3, [sp, #4]
    1940:	7033      	strb	r3, [r6, #0]
    1942:	0402      	lsls	r2, r0, #16
    1944:	9b02      	ldr	r3, [sp, #8]
    1946:	700d      	strb	r5, [r1, #0]
    1948:	f042 02c8 	orr.w	r2, r2, #200	; 0xc8
    194c:	4403      	add	r3, r0
    194e:	f84e 203c 	str.w	r2, [lr, ip, lsl #3]
    1952:	e6d8      	b.n	1706 <usb_isr+0x56e>
    1954:	f89d 1004 	ldrb.w	r1, [sp, #4]
    1958:	7019      	strb	r1, [r3, #0]
    195a:	9b02      	ldr	r3, [sp, #8]
    195c:	4a73      	ldr	r2, [pc, #460]	; (1b2c <usb_isr+0x994>)
    195e:	f888 5000 	strb.w	r5, [r8]
    1962:	3840      	subs	r0, #64	; 0x40
    1964:	3340      	adds	r3, #64	; 0x40
    1966:	f84e 2034 	str.w	r2, [lr, r4, lsl #3]
    196a:	e6cf      	b.n	170c <usb_isr+0x574>
    196c:	f019 0f08 	tst.w	r9, #8
    1970:	bf0c      	ite	eq
    1972:	2302      	moveq	r3, #2
    1974:	2303      	movne	r3, #3
    1976:	558b      	strb	r3, [r1, r6]
    1978:	e458      	b.n	122c <usb_isr+0x94>
    197a:	4a6d      	ldr	r2, [pc, #436]	; (1b30 <usb_isr+0x998>)
    197c:	210f      	movs	r1, #15
    197e:	7011      	strb	r1, [r2, #0]
    1980:	e660      	b.n	1644 <usb_isr+0x4ac>
    1982:	4a6c      	ldr	r2, [pc, #432]	; (1b34 <usb_isr+0x99c>)
    1984:	6854      	ldr	r4, [r2, #4]
    1986:	2c00      	cmp	r4, #0
    1988:	d0bb      	beq.n	1902 <usb_isr+0x76a>
    198a:	8868      	ldrh	r0, [r5, #2]
    198c:	f8b5 e004 	ldrh.w	lr, [r5, #4]
    1990:	e003      	b.n	199a <usb_isr+0x802>
    1992:	320c      	adds	r2, #12
    1994:	6854      	ldr	r4, [r2, #4]
    1996:	2c00      	cmp	r4, #0
    1998:	d0b3      	beq.n	1902 <usb_isr+0x76a>
    199a:	8813      	ldrh	r3, [r2, #0]
    199c:	4283      	cmp	r3, r0
    199e:	d1f8      	bne.n	1992 <usb_isr+0x7fa>
    19a0:	8853      	ldrh	r3, [r2, #2]
    19a2:	4573      	cmp	r3, lr
    19a4:	d1f5      	bne.n	1992 <usb_isr+0x7fa>
    19a6:	0a00      	lsrs	r0, r0, #8
    19a8:	2803      	cmp	r0, #3
    19aa:	bf0c      	ite	eq
    19ac:	f894 e000 	ldrbeq.w	lr, [r4]
    19b0:	f8b2 e008 	ldrhne.w	lr, [r2, #8]
    19b4:	e003      	b.n	19be <usb_isr+0x826>
    19b6:	4a60      	ldr	r2, [pc, #384]	; (1b38 <usb_isr+0x9a0>)
    19b8:	4c60      	ldr	r4, [pc, #384]	; (1b3c <usb_isr+0x9a4>)
    19ba:	7812      	ldrb	r2, [r2, #0]
    19bc:	7022      	strb	r2, [r4, #0]
    19be:	88e8      	ldrh	r0, [r5, #6]
    19c0:	4570      	cmp	r0, lr
    19c2:	f080 8131 	bcs.w	1c28 <usb_isr+0xa90>
    19c6:	495e      	ldr	r1, [pc, #376]	; (1b40 <usb_isr+0x9a8>)
    19c8:	780d      	ldrb	r5, [r1, #0]
    19ca:	2840      	cmp	r0, #64	; 0x40
    19cc:	4684      	mov	ip, r0
    19ce:	f045 0e02 	orr.w	lr, r5, #2
    19d2:	bf28      	it	cs
    19d4:	f04f 0c40 	movcs.w	ip, #64	; 0x40
    19d8:	eb04 030c 	add.w	r3, r4, ip
    19dc:	eb09 02ce 	add.w	r2, r9, lr, lsl #3
    19e0:	9302      	str	r3, [sp, #8]
    19e2:	2301      	movs	r3, #1
    19e4:	6054      	str	r4, [r2, #4]
    19e6:	ebcc 0000 	rsb	r0, ip, r0
    19ea:	ea4f 480c 	mov.w	r8, ip, lsl #16
    19ee:	2200      	movs	r2, #0
    19f0:	9301      	str	r3, [sp, #4]
    19f2:	24c8      	movs	r4, #200	; 0xc8
    19f4:	e65e      	b.n	16b4 <usb_isr+0x51c>
    19f6:	4c51      	ldr	r4, [pc, #324]	; (1b3c <usb_isr+0x9a4>)
    19f8:	f04f 0e02 	mov.w	lr, #2
    19fc:	7022      	strb	r2, [r4, #0]
    19fe:	7062      	strb	r2, [r4, #1]
    1a00:	e7dd      	b.n	19be <usb_isr+0x826>
    1a02:	f5b1 6fa0 	cmp.w	r1, #1280	; 0x500
    1a06:	f47f af7c 	bne.w	1902 <usb_isr+0x76a>
    1a0a:	2301      	movs	r3, #1
    1a0c:	2200      	movs	r2, #0
    1a0e:	9301      	str	r3, [sp, #4]
    1a10:	e63d      	b.n	168e <usb_isr+0x4f6>
    1a12:	f242 3221 	movw	r2, #8993	; 0x2321
    1a16:	4291      	cmp	r1, r2
    1a18:	d0f7      	beq.n	1a0a <usb_isr+0x872>
    1a1a:	e772      	b.n	1902 <usb_isr+0x76a>
    1a1c:	886a      	ldrh	r2, [r5, #2]
    1a1e:	2a00      	cmp	r2, #0
    1a20:	f47f af6f 	bne.w	1902 <usb_isr+0x76a>
    1a24:	4836      	ldr	r0, [pc, #216]	; (1b00 <usb_isr+0x968>)
    1a26:	f8cd e004 	str.w	lr, [sp, #4]
    1a2a:	0089      	lsls	r1, r1, #2
    1a2c:	4408      	add	r0, r1
    1a2e:	7801      	ldrb	r1, [r0, #0]
    1a30:	f021 0102 	bic.w	r1, r1, #2
    1a34:	7001      	strb	r1, [r0, #0]
    1a36:	e62a      	b.n	168e <usb_isr+0x4f6>
    1a38:	f000 f98a 	bl	1d50 <usb_malloc>
    1a3c:	2800      	cmp	r0, #0
    1a3e:	f000 80e6 	beq.w	1c0e <usb_isr+0xa76>
    1a42:	3008      	adds	r0, #8
    1a44:	f8c4 0084 	str.w	r0, [r4, #132]	; 0x84
    1a48:	4838      	ldr	r0, [pc, #224]	; (1b2c <usb_isr+0x994>)
    1a4a:	f8c9 0080 	str.w	r0, [r9, #128]	; 0x80
    1a4e:	f000 f97f 	bl	1d50 <usb_malloc>
    1a52:	4a33      	ldr	r2, [pc, #204]	; (1b20 <usb_isr+0x988>)
    1a54:	2800      	cmp	r0, #0
    1a56:	f000 80d4 	beq.w	1c02 <usb_isr+0xa6a>
    1a5a:	3008      	adds	r0, #8
    1a5c:	4932      	ldr	r1, [pc, #200]	; (1b28 <usb_isr+0x990>)
    1a5e:	f8c2 008c 	str.w	r0, [r2, #140]	; 0x8c
    1a62:	f8c2 1088 	str.w	r1, [r2, #136]	; 0x88
    1a66:	e737      	b.n	18d8 <usb_isr+0x740>
    1a68:	f000 f972 	bl	1d50 <usb_malloc>
    1a6c:	2800      	cmp	r0, #0
    1a6e:	f000 80bb 	beq.w	1be8 <usb_isr+0xa50>
    1a72:	3008      	adds	r0, #8
    1a74:	f8c8 0044 	str.w	r0, [r8, #68]	; 0x44
    1a78:	482c      	ldr	r0, [pc, #176]	; (1b2c <usb_isr+0x994>)
    1a7a:	f8c9 0040 	str.w	r0, [r9, #64]	; 0x40
    1a7e:	f000 f967 	bl	1d50 <usb_malloc>
    1a82:	4a27      	ldr	r2, [pc, #156]	; (1b20 <usb_isr+0x988>)
    1a84:	2800      	cmp	r0, #0
    1a86:	f000 80aa 	beq.w	1bde <usb_isr+0xa46>
    1a8a:	3008      	adds	r0, #8
    1a8c:	4926      	ldr	r1, [pc, #152]	; (1b28 <usb_isr+0x990>)
    1a8e:	64d0      	str	r0, [r2, #76]	; 0x4c
    1a90:	6491      	str	r1, [r2, #72]	; 0x48
    1a92:	e708      	b.n	18a6 <usb_isr+0x70e>
    1a94:	f000 f95c 	bl	1d50 <usb_malloc>
    1a98:	2800      	cmp	r0, #0
    1a9a:	f000 80c1 	beq.w	1c20 <usb_isr+0xa88>
    1a9e:	3008      	adds	r0, #8
    1aa0:	f8c9 0024 	str.w	r0, [r9, #36]	; 0x24
    1aa4:	4821      	ldr	r0, [pc, #132]	; (1b2c <usb_isr+0x994>)
    1aa6:	f8c9 0020 	str.w	r0, [r9, #32]
    1aaa:	f000 f951 	bl	1d50 <usb_malloc>
    1aae:	4a1c      	ldr	r2, [pc, #112]	; (1b20 <usb_isr+0x988>)
    1ab0:	2800      	cmp	r0, #0
    1ab2:	f000 80b0 	beq.w	1c16 <usb_isr+0xa7e>
    1ab6:	3008      	adds	r0, #8
    1ab8:	491b      	ldr	r1, [pc, #108]	; (1b28 <usb_isr+0x990>)
    1aba:	62d0      	str	r0, [r2, #44]	; 0x2c
    1abc:	6291      	str	r1, [r2, #40]	; 0x28
    1abe:	e6e4      	b.n	188a <usb_isr+0x6f2>
    1ac0:	f000 f946 	bl	1d50 <usb_malloc>
    1ac4:	2800      	cmp	r0, #0
    1ac6:	f000 8098 	beq.w	1bfa <usb_isr+0xa62>
    1aca:	3008      	adds	r0, #8
    1acc:	f8c8 0064 	str.w	r0, [r8, #100]	; 0x64
    1ad0:	4816      	ldr	r0, [pc, #88]	; (1b2c <usb_isr+0x994>)
    1ad2:	f8c9 0060 	str.w	r0, [r9, #96]	; 0x60
    1ad6:	f000 f93b 	bl	1d50 <usb_malloc>
    1ada:	4a11      	ldr	r2, [pc, #68]	; (1b20 <usb_isr+0x988>)
    1adc:	2800      	cmp	r0, #0
    1ade:	f000 8087 	beq.w	1bf0 <usb_isr+0xa58>
    1ae2:	3008      	adds	r0, #8
    1ae4:	4910      	ldr	r1, [pc, #64]	; (1b28 <usb_isr+0x990>)
    1ae6:	66d0      	str	r0, [r2, #108]	; 0x6c
    1ae8:	6691      	str	r1, [r2, #104]	; 0x68
    1aea:	e6e9      	b.n	18c0 <usb_isr+0x728>
    1aec:	6bc8      	ldr	r0, [r1, #60]	; 0x3c
    1aee:	3808      	subs	r0, #8
    1af0:	f000 f94e 	bl	1d90 <usb_free>
    1af4:	e506      	b.n	1504 <usb_isr+0x36c>
    1af6:	6b48      	ldr	r0, [r1, #52]	; 0x34
    1af8:	3808      	subs	r0, #8
    1afa:	f000 f949 	bl	1d90 <usb_free>
    1afe:	e4fb      	b.n	14f8 <usb_isr+0x360>
    1b00:	400720c0 	.word	0x400720c0
    1b04:	40072080 	.word	0x40072080
    1b08:	00003990 	.word	0x00003990
    1b0c:	400720c4 	.word	0x400720c4
    1b10:	1fff95ed 	.word	0x1fff95ed
    1b14:	400720c8 	.word	0x400720c8
    1b18:	400720cc 	.word	0x400720cc
    1b1c:	400720d0 	.word	0x400720d0
    1b20:	1fff8000 	.word	0x1fff8000
    1b24:	40072094 	.word	0x40072094
    1b28:	004000c8 	.word	0x004000c8
    1b2c:	00400088 	.word	0x00400088
    1b30:	1fff9581 	.word	0x1fff9581
    1b34:	00003994 	.word	0x00003994
    1b38:	1fff95f8 	.word	0x1fff95f8
    1b3c:	1fff95f0 	.word	0x1fff95f0
    1b40:	1fff95ec 	.word	0x1fff95ec
    1b44:	6ac8      	ldr	r0, [r1, #44]	; 0x2c
    1b46:	3808      	subs	r0, #8
    1b48:	f000 f922 	bl	1d90 <usb_free>
    1b4c:	e4ce      	b.n	14ec <usb_isr+0x354>
    1b4e:	6a60      	ldr	r0, [r4, #36]	; 0x24
    1b50:	3808      	subs	r0, #8
    1b52:	f000 f91d 	bl	1d90 <usb_free>
    1b56:	e4c3      	b.n	14e0 <usb_isr+0x348>
    1b58:	6fc8      	ldr	r0, [r1, #124]	; 0x7c
    1b5a:	3808      	subs	r0, #8
    1b5c:	f000 f918 	bl	1d90 <usb_free>
    1b60:	e500      	b.n	1564 <usb_isr+0x3cc>
    1b62:	6f48      	ldr	r0, [r1, #116]	; 0x74
    1b64:	3808      	subs	r0, #8
    1b66:	f000 f913 	bl	1d90 <usb_free>
    1b6a:	e4f5      	b.n	1558 <usb_isr+0x3c0>
    1b6c:	6ec8      	ldr	r0, [r1, #108]	; 0x6c
    1b6e:	3808      	subs	r0, #8
    1b70:	f000 f90e 	bl	1d90 <usb_free>
    1b74:	e4ea      	b.n	154c <usb_isr+0x3b4>
    1b76:	6e48      	ldr	r0, [r1, #100]	; 0x64
    1b78:	3808      	subs	r0, #8
    1b7a:	f000 f909 	bl	1d90 <usb_free>
    1b7e:	e4df      	b.n	1540 <usb_isr+0x3a8>
    1b80:	6dc8      	ldr	r0, [r1, #92]	; 0x5c
    1b82:	3808      	subs	r0, #8
    1b84:	f000 f904 	bl	1d90 <usb_free>
    1b88:	e4d4      	b.n	1534 <usb_isr+0x39c>
    1b8a:	6d48      	ldr	r0, [r1, #84]	; 0x54
    1b8c:	3808      	subs	r0, #8
    1b8e:	f000 f8ff 	bl	1d90 <usb_free>
    1b92:	e4c9      	b.n	1528 <usb_isr+0x390>
    1b94:	6cc8      	ldr	r0, [r1, #76]	; 0x4c
    1b96:	3808      	subs	r0, #8
    1b98:	f000 f8fa 	bl	1d90 <usb_free>
    1b9c:	e4be      	b.n	151c <usb_isr+0x384>
    1b9e:	6c48      	ldr	r0, [r1, #68]	; 0x44
    1ba0:	3808      	subs	r0, #8
    1ba2:	f000 f8f5 	bl	1d90 <usb_free>
    1ba6:	e4b3      	b.n	1510 <usb_isr+0x378>
    1ba8:	f8d1 009c 	ldr.w	r0, [r1, #156]	; 0x9c
    1bac:	3808      	subs	r0, #8
    1bae:	f000 f8ef 	bl	1d90 <usb_free>
    1bb2:	e4ef      	b.n	1594 <usb_isr+0x3fc>
    1bb4:	f8d1 0094 	ldr.w	r0, [r1, #148]	; 0x94
    1bb8:	3808      	subs	r0, #8
    1bba:	f000 f8e9 	bl	1d90 <usb_free>
    1bbe:	e4e3      	b.n	1588 <usb_isr+0x3f0>
    1bc0:	f8d1 008c 	ldr.w	r0, [r1, #140]	; 0x8c
    1bc4:	3808      	subs	r0, #8
    1bc6:	f000 f8e3 	bl	1d90 <usb_free>
    1bca:	e4d7      	b.n	157c <usb_isr+0x3e4>
    1bcc:	f8d1 0084 	ldr.w	r0, [r1, #132]	; 0x84
    1bd0:	3808      	subs	r0, #8
    1bd2:	f000 f8dd 	bl	1d90 <usb_free>
    1bd6:	e4cb      	b.n	1570 <usb_isr+0x3d8>
    1bd8:	f04f 0e02 	mov.w	lr, #2
    1bdc:	e6ef      	b.n	19be <usb_isr+0x826>
    1bde:	7829      	ldrb	r1, [r5, #0]
    1be0:	6490      	str	r0, [r2, #72]	; 0x48
    1be2:	1c4a      	adds	r2, r1, #1
    1be4:	702a      	strb	r2, [r5, #0]
    1be6:	e65e      	b.n	18a6 <usb_isr+0x70e>
    1be8:	782a      	ldrb	r2, [r5, #0]
    1bea:	3201      	adds	r2, #1
    1bec:	702a      	strb	r2, [r5, #0]
    1bee:	e744      	b.n	1a7a <usb_isr+0x8e2>
    1bf0:	7829      	ldrb	r1, [r5, #0]
    1bf2:	6690      	str	r0, [r2, #104]	; 0x68
    1bf4:	1c4a      	adds	r2, r1, #1
    1bf6:	702a      	strb	r2, [r5, #0]
    1bf8:	e662      	b.n	18c0 <usb_isr+0x728>
    1bfa:	782a      	ldrb	r2, [r5, #0]
    1bfc:	3201      	adds	r2, #1
    1bfe:	702a      	strb	r2, [r5, #0]
    1c00:	e767      	b.n	1ad2 <usb_isr+0x93a>
    1c02:	7829      	ldrb	r1, [r5, #0]
    1c04:	f8c2 0088 	str.w	r0, [r2, #136]	; 0x88
    1c08:	1c4a      	adds	r2, r1, #1
    1c0a:	702a      	strb	r2, [r5, #0]
    1c0c:	e664      	b.n	18d8 <usb_isr+0x740>
    1c0e:	782a      	ldrb	r2, [r5, #0]
    1c10:	3201      	adds	r2, #1
    1c12:	702a      	strb	r2, [r5, #0]
    1c14:	e719      	b.n	1a4a <usb_isr+0x8b2>
    1c16:	7829      	ldrb	r1, [r5, #0]
    1c18:	6290      	str	r0, [r2, #40]	; 0x28
    1c1a:	1c4a      	adds	r2, r1, #1
    1c1c:	702a      	strb	r2, [r5, #0]
    1c1e:	e634      	b.n	188a <usb_isr+0x6f2>
    1c20:	782a      	ldrb	r2, [r5, #0]
    1c22:	3201      	adds	r2, #1
    1c24:	702a      	strb	r2, [r5, #0]
    1c26:	e73e      	b.n	1aa6 <usb_isr+0x90e>
    1c28:	f1be 0f40 	cmp.w	lr, #64	; 0x40
    1c2c:	46f4      	mov	ip, lr
    1c2e:	bf28      	it	cs
    1c30:	f04f 0c40 	movcs.w	ip, #64	; 0x40
    1c34:	eb04 030c 	add.w	r3, r4, ip
    1c38:	9302      	str	r3, [sp, #8]
    1c3a:	2301      	movs	r3, #1
    1c3c:	ebcc 000e 	rsb	r0, ip, lr
    1c40:	ea4f 480c 	mov.w	r8, ip, lsl #16
    1c44:	2200      	movs	r2, #0
    1c46:	9301      	str	r3, [sp, #4]
    1c48:	e526      	b.n	1698 <usb_isr+0x500>
    1c4a:	bf00      	nop

00001c4c <usb_init>:
    1c4c:	b5f8      	push	{r3, r4, r5, r6, r7, lr}
    1c4e:	f000 fe59 	bl	2904 <usb_init_serialnumber>
    1c52:	4b29      	ldr	r3, [pc, #164]	; (1cf8 <usb_init+0xac>)
    1c54:	4829      	ldr	r0, [pc, #164]	; (1cfc <usb_init+0xb0>)
    1c56:	4c2a      	ldr	r4, [pc, #168]	; (1d00 <usb_init+0xb4>)
    1c58:	4f2a      	ldr	r7, [pc, #168]	; (1d04 <usb_init+0xb8>)
    1c5a:	4d2b      	ldr	r5, [pc, #172]	; (1d08 <usb_init+0xbc>)
    1c5c:	f8df c0bc 	ldr.w	ip, [pc, #188]	; 1d1c <usb_init+0xd0>
    1c60:	f8df e0bc 	ldr.w	lr, [pc, #188]	; 1d20 <usb_init+0xd4>
    1c64:	4e29      	ldr	r6, [pc, #164]	; (1d0c <usb_init+0xc0>)
    1c66:	2200      	movs	r2, #0
    1c68:	601a      	str	r2, [r3, #0]
    1c6a:	605a      	str	r2, [r3, #4]
    1c6c:	609a      	str	r2, [r3, #8]
    1c6e:	60da      	str	r2, [r3, #12]
    1c70:	611a      	str	r2, [r3, #16]
    1c72:	615a      	str	r2, [r3, #20]
    1c74:	619a      	str	r2, [r3, #24]
    1c76:	61da      	str	r2, [r3, #28]
    1c78:	621a      	str	r2, [r3, #32]
    1c7a:	625a      	str	r2, [r3, #36]	; 0x24
    1c7c:	629a      	str	r2, [r3, #40]	; 0x28
    1c7e:	62da      	str	r2, [r3, #44]	; 0x2c
    1c80:	631a      	str	r2, [r3, #48]	; 0x30
    1c82:	635a      	str	r2, [r3, #52]	; 0x34
    1c84:	639a      	str	r2, [r3, #56]	; 0x38
    1c86:	63da      	str	r2, [r3, #60]	; 0x3c
    1c88:	641a      	str	r2, [r3, #64]	; 0x40
    1c8a:	645a      	str	r2, [r3, #68]	; 0x44
    1c8c:	649a      	str	r2, [r3, #72]	; 0x48
    1c8e:	64da      	str	r2, [r3, #76]	; 0x4c
    1c90:	651a      	str	r2, [r3, #80]	; 0x50
    1c92:	655a      	str	r2, [r3, #84]	; 0x54
    1c94:	659a      	str	r2, [r3, #88]	; 0x58
    1c96:	65da      	str	r2, [r3, #92]	; 0x5c
    1c98:	661a      	str	r2, [r3, #96]	; 0x60
    1c9a:	665a      	str	r2, [r3, #100]	; 0x64
    1c9c:	669a      	str	r2, [r3, #104]	; 0x68
    1c9e:	66da      	str	r2, [r3, #108]	; 0x6c
    1ca0:	671a      	str	r2, [r3, #112]	; 0x70
    1ca2:	675a      	str	r2, [r3, #116]	; 0x74
    1ca4:	679a      	str	r2, [r3, #120]	; 0x78
    1ca6:	67da      	str	r2, [r3, #124]	; 0x7c
    1ca8:	f8c3 2080 	str.w	r2, [r3, #128]	; 0x80
    1cac:	6801      	ldr	r1, [r0, #0]
    1cae:	f8c3 2084 	str.w	r2, [r3, #132]	; 0x84
    1cb2:	f441 2180 	orr.w	r1, r1, #262144	; 0x40000
    1cb6:	6001      	str	r1, [r0, #0]
    1cb8:	f3c3 2107 	ubfx	r1, r3, #8, #8
    1cbc:	7021      	strb	r1, [r4, #0]
    1cbe:	f3c3 4007 	ubfx	r0, r3, #16, #8
    1cc2:	4913      	ldr	r1, [pc, #76]	; (1d10 <usb_init+0xc4>)
    1cc4:	7038      	strb	r0, [r7, #0]
    1cc6:	0e1b      	lsrs	r3, r3, #24
    1cc8:	702b      	strb	r3, [r5, #0]
    1cca:	23ff      	movs	r3, #255	; 0xff
    1ccc:	f88c 3000 	strb.w	r3, [ip]
    1cd0:	4d10      	ldr	r5, [pc, #64]	; (1d14 <usb_init+0xc8>)
    1cd2:	f88e 3000 	strb.w	r3, [lr]
    1cd6:	4810      	ldr	r0, [pc, #64]	; (1d18 <usb_init+0xcc>)
    1cd8:	700b      	strb	r3, [r1, #0]
    1cda:	2301      	movs	r3, #1
    1cdc:	7033      	strb	r3, [r6, #0]
    1cde:	f884 2064 	strb.w	r2, [r4, #100]	; 0x64
    1ce2:	2670      	movs	r6, #112	; 0x70
    1ce4:	f44f 7400 	mov.w	r4, #512	; 0x200
    1ce8:	2210      	movs	r2, #16
    1cea:	f807 3c2c 	strb.w	r3, [r7, #-44]
    1cee:	702e      	strb	r6, [r5, #0]
    1cf0:	6004      	str	r4, [r0, #0]
    1cf2:	f881 20f8 	strb.w	r2, [r1, #248]	; 0xf8
    1cf6:	bdf8      	pop	{r3, r4, r5, r6, r7, pc}
    1cf8:	1fff8000 	.word	0x1fff8000
    1cfc:	40048034 	.word	0x40048034
    1d00:	4007209c 	.word	0x4007209c
    1d04:	400720b0 	.word	0x400720b0
    1d08:	400720b4 	.word	0x400720b4
    1d0c:	40072094 	.word	0x40072094
    1d10:	40072010 	.word	0x40072010
    1d14:	e000e449 	.word	0xe000e449
    1d18:	e000e108 	.word	0xe000e108
    1d1c:	40072080 	.word	0x40072080
    1d20:	40072088 	.word	0x40072088

00001d24 <usb_serial_class::clear()>:
    1d24:	f000 b8a4 	b.w	1e70 <usb_serial_flush_input>

00001d28 <usb_serial_class::peek()>:
    1d28:	f000 b87c 	b.w	1e24 <usb_serial_peekchar>

00001d2c <usb_serial_class::read()>:
    1d2c:	f000 b856 	b.w	1ddc <usb_serial_getchar>

00001d30 <usb_serial_class::available()>:
    1d30:	f000 b890 	b.w	1e54 <usb_serial_available>

00001d34 <usb_serial_class::flush()>:
    1d34:	f000 b9bc 	b.w	20b0 <usb_serial_flush_output>

00001d38 <usb_serial_class::availableForWrite()>:
    1d38:	f000 b996 	b.w	2068 <usb_serial_write_buffer_free>

00001d3c <usb_serial_class::write(unsigned char const*, unsigned int)>:
    1d3c:	4608      	mov	r0, r1
    1d3e:	4611      	mov	r1, r2
    1d40:	f000 b8b2 	b.w	1ea8 <usb_serial_write>

00001d44 <usb_serial_class::write(unsigned char)>:
    1d44:	4608      	mov	r0, r1
    1d46:	f000 b983 	b.w	2050 <usb_serial_putchar>
    1d4a:	bf00      	nop

00001d4c <serialEvent()>:
    1d4c:	4770      	bx	lr
    1d4e:	bf00      	nop

00001d50 <usb_malloc>:
    1d50:	b672      	cpsid	i
    1d52:	480d      	ldr	r0, [pc, #52]	; (1d88 <usb_malloc+0x38>)
    1d54:	6802      	ldr	r2, [r0, #0]
    1d56:	fab2 f382 	clz	r3, r2
    1d5a:	2b0b      	cmp	r3, #11
    1d5c:	dc10      	bgt.n	1d80 <usb_malloc+0x30>
    1d5e:	f04f 4100 	mov.w	r1, #2147483648	; 0x80000000
    1d62:	40d9      	lsrs	r1, r3
    1d64:	ea22 0201 	bic.w	r2, r2, r1
    1d68:	6002      	str	r2, [r0, #0]
    1d6a:	b662      	cpsie	i
    1d6c:	4807      	ldr	r0, [pc, #28]	; (1d8c <usb_malloc+0x3c>)
    1d6e:	eb03 03c3 	add.w	r3, r3, r3, lsl #3
    1d72:	00db      	lsls	r3, r3, #3
    1d74:	18c2      	adds	r2, r0, r3
    1d76:	2100      	movs	r1, #0
    1d78:	50c1      	str	r1, [r0, r3]
    1d7a:	4610      	mov	r0, r2
    1d7c:	6051      	str	r1, [r2, #4]
    1d7e:	4770      	bx	lr
    1d80:	b662      	cpsie	i
    1d82:	2000      	movs	r0, #0
    1d84:	4770      	bx	lr
    1d86:	bf00      	nop
    1d88:	1fff88f4 	.word	0x1fff88f4
    1d8c:	1fff83bc 	.word	0x1fff83bc

00001d90 <usb_free>:
    1d90:	4b0d      	ldr	r3, [pc, #52]	; (1dc8 <usb_free+0x38>)
    1d92:	4a0e      	ldr	r2, [pc, #56]	; (1dcc <usb_free+0x3c>)
    1d94:	1ac3      	subs	r3, r0, r3
    1d96:	fba2 2303 	umull	r2, r3, r2, r3
    1d9a:	091b      	lsrs	r3, r3, #4
    1d9c:	2b0b      	cmp	r3, #11
    1d9e:	d80c      	bhi.n	1dba <usb_free+0x2a>
    1da0:	4a0b      	ldr	r2, [pc, #44]	; (1dd0 <usb_free+0x40>)
    1da2:	7812      	ldrb	r2, [r2, #0]
    1da4:	b952      	cbnz	r2, 1dbc <usb_free+0x2c>
    1da6:	b672      	cpsid	i
    1da8:	480a      	ldr	r0, [pc, #40]	; (1dd4 <usb_free+0x44>)
    1daa:	f04f 4100 	mov.w	r1, #2147483648	; 0x80000000
    1dae:	6802      	ldr	r2, [r0, #0]
    1db0:	fa21 f303 	lsr.w	r3, r1, r3
    1db4:	431a      	orrs	r2, r3
    1db6:	6002      	str	r2, [r0, #0]
    1db8:	b662      	cpsie	i
    1dba:	4770      	bx	lr
    1dbc:	4a06      	ldr	r2, [pc, #24]	; (1dd8 <usb_free+0x48>)
    1dbe:	7812      	ldrb	r2, [r2, #0]
    1dc0:	2a00      	cmp	r2, #0
    1dc2:	d0f0      	beq.n	1da6 <usb_free+0x16>
    1dc4:	f7ff b942 	b.w	104c <usb_rx_memory>
    1dc8:	1fff83bc 	.word	0x1fff83bc
    1dcc:	38e38e39 	.word	0x38e38e39
    1dd0:	1fff95ed 	.word	0x1fff95ed
    1dd4:	1fff88f4 	.word	0x1fff88f4
    1dd8:	1fff95f8 	.word	0x1fff95f8

00001ddc <usb_serial_getchar>:
    1ddc:	b538      	push	{r3, r4, r5, lr}
    1dde:	4d0f      	ldr	r5, [pc, #60]	; (1e1c <usb_serial_getchar+0x40>)
    1de0:	6828      	ldr	r0, [r5, #0]
    1de2:	b178      	cbz	r0, 1e04 <usb_serial_getchar+0x28>
    1de4:	8843      	ldrh	r3, [r0, #2]
    1de6:	8802      	ldrh	r2, [r0, #0]
    1de8:	18c1      	adds	r1, r0, r3
    1dea:	3301      	adds	r3, #1
    1dec:	4293      	cmp	r3, r2
    1dee:	7a0c      	ldrb	r4, [r1, #8]
    1df0:	d202      	bcs.n	1df8 <usb_serial_getchar+0x1c>
    1df2:	8043      	strh	r3, [r0, #2]
    1df4:	4620      	mov	r0, r4
    1df6:	bd38      	pop	{r3, r4, r5, pc}
    1df8:	f7ff ffca 	bl	1d90 <usb_free>
    1dfc:	2300      	movs	r3, #0
    1dfe:	4620      	mov	r0, r4
    1e00:	602b      	str	r3, [r5, #0]
    1e02:	bd38      	pop	{r3, r4, r5, pc}
    1e04:	4b06      	ldr	r3, [pc, #24]	; (1e20 <usb_serial_getchar+0x44>)
    1e06:	781b      	ldrb	r3, [r3, #0]
    1e08:	b12b      	cbz	r3, 1e16 <usb_serial_getchar+0x3a>
    1e0a:	2003      	movs	r0, #3
    1e0c:	f7ff f8ea 	bl	fe4 <usb_rx>
    1e10:	6028      	str	r0, [r5, #0]
    1e12:	2800      	cmp	r0, #0
    1e14:	d1e6      	bne.n	1de4 <usb_serial_getchar+0x8>
    1e16:	f04f 30ff 	mov.w	r0, #4294967295
    1e1a:	bd38      	pop	{r3, r4, r5, pc}
    1e1c:	1fff960c 	.word	0x1fff960c
    1e20:	1fff95f8 	.word	0x1fff95f8

00001e24 <usb_serial_peekchar>:
    1e24:	b510      	push	{r4, lr}
    1e26:	4c09      	ldr	r4, [pc, #36]	; (1e4c <usb_serial_peekchar+0x28>)
    1e28:	6820      	ldr	r0, [r4, #0]
    1e2a:	b118      	cbz	r0, 1e34 <usb_serial_peekchar+0x10>
    1e2c:	8843      	ldrh	r3, [r0, #2]
    1e2e:	4418      	add	r0, r3
    1e30:	7a00      	ldrb	r0, [r0, #8]
    1e32:	bd10      	pop	{r4, pc}
    1e34:	4b06      	ldr	r3, [pc, #24]	; (1e50 <usb_serial_peekchar+0x2c>)
    1e36:	781b      	ldrb	r3, [r3, #0]
    1e38:	b12b      	cbz	r3, 1e46 <usb_serial_peekchar+0x22>
    1e3a:	2003      	movs	r0, #3
    1e3c:	f7ff f8d2 	bl	fe4 <usb_rx>
    1e40:	6020      	str	r0, [r4, #0]
    1e42:	2800      	cmp	r0, #0
    1e44:	d1f2      	bne.n	1e2c <usb_serial_peekchar+0x8>
    1e46:	f04f 30ff 	mov.w	r0, #4294967295
    1e4a:	bd10      	pop	{r4, pc}
    1e4c:	1fff960c 	.word	0x1fff960c
    1e50:	1fff95f8 	.word	0x1fff95f8

00001e54 <usb_serial_available>:
    1e54:	4b04      	ldr	r3, [pc, #16]	; (1e68 <usb_serial_available+0x14>)
    1e56:	4a05      	ldr	r2, [pc, #20]	; (1e6c <usb_serial_available+0x18>)
    1e58:	681b      	ldr	r3, [r3, #0]
    1e5a:	8890      	ldrh	r0, [r2, #4]
    1e5c:	b11b      	cbz	r3, 1e66 <usb_serial_available+0x12>
    1e5e:	881a      	ldrh	r2, [r3, #0]
    1e60:	885b      	ldrh	r3, [r3, #2]
    1e62:	1ad3      	subs	r3, r2, r3
    1e64:	4418      	add	r0, r3
    1e66:	4770      	bx	lr
    1e68:	1fff960c 	.word	0x1fff960c
    1e6c:	1fff97f4 	.word	0x1fff97f4

00001e70 <usb_serial_flush_input>:
    1e70:	4b0b      	ldr	r3, [pc, #44]	; (1ea0 <usb_serial_flush_input+0x30>)
    1e72:	781b      	ldrb	r3, [r3, #0]
    1e74:	b19b      	cbz	r3, 1e9e <usb_serial_flush_input+0x2e>
    1e76:	b510      	push	{r4, lr}
    1e78:	4c0a      	ldr	r4, [pc, #40]	; (1ea4 <usb_serial_flush_input+0x34>)
    1e7a:	6820      	ldr	r0, [r4, #0]
    1e7c:	b148      	cbz	r0, 1e92 <usb_serial_flush_input+0x22>
    1e7e:	f7ff ff87 	bl	1d90 <usb_free>
    1e82:	2300      	movs	r3, #0
    1e84:	2003      	movs	r0, #3
    1e86:	6023      	str	r3, [r4, #0]
    1e88:	f7ff f8ac 	bl	fe4 <usb_rx>
    1e8c:	b130      	cbz	r0, 1e9c <usb_serial_flush_input+0x2c>
    1e8e:	f7ff ff7f 	bl	1d90 <usb_free>
    1e92:	2003      	movs	r0, #3
    1e94:	f7ff f8a6 	bl	fe4 <usb_rx>
    1e98:	2800      	cmp	r0, #0
    1e9a:	d1f8      	bne.n	1e8e <usb_serial_flush_input+0x1e>
    1e9c:	bd10      	pop	{r4, pc}
    1e9e:	4770      	bx	lr
    1ea0:	1fff95f8 	.word	0x1fff95f8
    1ea4:	1fff960c 	.word	0x1fff960c

00001ea8 <usb_serial_write>:
    1ea8:	e92d 4ff0 	stmdb	sp!, {r4, r5, r6, r7, r8, r9, sl, fp, lr}
    1eac:	4a63      	ldr	r2, [pc, #396]	; (203c <usb_serial_write+0x194>)
    1eae:	b083      	sub	sp, #12
    1eb0:	2301      	movs	r3, #1
    1eb2:	7013      	strb	r3, [r2, #0]
    1eb4:	9101      	str	r1, [sp, #4]
    1eb6:	2900      	cmp	r1, #0
    1eb8:	d06c      	beq.n	1f94 <usb_serial_write+0xec>
    1eba:	f8df 8190 	ldr.w	r8, [pc, #400]	; 204c <usb_serial_write+0x1a4>
    1ebe:	4f60      	ldr	r7, [pc, #384]	; (2040 <usb_serial_write+0x198>)
    1ec0:	4604      	mov	r4, r0
    1ec2:	f8d8 0000 	ldr.w	r0, [r8]
    1ec6:	460e      	mov	r6, r1
    1ec8:	2800      	cmp	r0, #0
    1eca:	f000 8081 	beq.w	1fd0 <usb_serial_write+0x128>
    1ece:	4d5d      	ldr	r5, [pc, #372]	; (2044 <usb_serial_write+0x19c>)
    1ed0:	8843      	ldrh	r3, [r0, #2]
    1ed2:	f1c3 0140 	rsb	r1, r3, #64	; 0x40
    1ed6:	42b1      	cmp	r1, r6
    1ed8:	bf28      	it	cs
    1eda:	4631      	movcs	r1, r6
    1edc:	eb03 0901 	add.w	r9, r3, r1
    1ee0:	fa1f f989 	uxth.w	r9, r9
    1ee4:	f100 0208 	add.w	r2, r0, #8
    1ee8:	f04f 0e00 	mov.w	lr, #0
    1eec:	1a76      	subs	r6, r6, r1
    1eee:	f8a0 9002 	strh.w	r9, [r0, #2]
    1ef2:	f101 3cff 	add.w	ip, r1, #4294967295
    1ef6:	441a      	add	r2, r3
    1ef8:	f885 e000 	strb.w	lr, [r5]
    1efc:	2900      	cmp	r1, #0
    1efe:	d041      	beq.n	1f84 <usb_serial_write+0xdc>
    1f00:	f103 0508 	add.w	r5, r3, #8
    1f04:	330c      	adds	r3, #12
    1f06:	4403      	add	r3, r0
    1f08:	4405      	add	r5, r0
    1f0a:	f104 0904 	add.w	r9, r4, #4
    1f0e:	454d      	cmp	r5, r9
    1f10:	bf38      	it	cc
    1f12:	429c      	cmpcc	r4, r3
    1f14:	bf2c      	ite	cs
    1f16:	2301      	movcs	r3, #1
    1f18:	2300      	movcc	r3, #0
    1f1a:	2909      	cmp	r1, #9
    1f1c:	bf94      	ite	ls
    1f1e:	2300      	movls	r3, #0
    1f20:	f003 0301 	andhi.w	r3, r3, #1
    1f24:	2b00      	cmp	r3, #0
    1f26:	d04a      	beq.n	1fbe <usb_serial_write+0x116>
    1f28:	ea44 0305 	orr.w	r3, r4, r5
    1f2c:	079b      	lsls	r3, r3, #30
    1f2e:	d146      	bne.n	1fbe <usb_serial_write+0x116>
    1f30:	1f0b      	subs	r3, r1, #4
    1f32:	089b      	lsrs	r3, r3, #2
    1f34:	3301      	adds	r3, #1
    1f36:	f1bc 0f02 	cmp.w	ip, #2
    1f3a:	ea4f 0983 	mov.w	r9, r3, lsl #2
    1f3e:	d93c      	bls.n	1fba <usb_serial_write+0x112>
    1f40:	f1a4 0a04 	sub.w	sl, r4, #4
    1f44:	469b      	mov	fp, r3
    1f46:	f10e 0e01 	add.w	lr, lr, #1
    1f4a:	f85a 3f04 	ldr.w	r3, [sl, #4]!
    1f4e:	f845 3b04 	str.w	r3, [r5], #4
    1f52:	45f3      	cmp	fp, lr
    1f54:	d8f7      	bhi.n	1f46 <usb_serial_write+0x9e>
    1f56:	4549      	cmp	r1, r9
    1f58:	444a      	add	r2, r9
    1f5a:	ebc9 0c0c 	rsb	ip, r9, ip
    1f5e:	eb04 0309 	add.w	r3, r4, r9
    1f62:	d061      	beq.n	2028 <usb_serial_write+0x180>
    1f64:	781d      	ldrb	r5, [r3, #0]
    1f66:	7015      	strb	r5, [r2, #0]
    1f68:	f1bc 0f00 	cmp.w	ip, #0
    1f6c:	d023      	beq.n	1fb6 <usb_serial_write+0x10e>
    1f6e:	785d      	ldrb	r5, [r3, #1]
    1f70:	7055      	strb	r5, [r2, #1]
    1f72:	f1bc 0f01 	cmp.w	ip, #1
    1f76:	d01e      	beq.n	1fb6 <usb_serial_write+0x10e>
    1f78:	789b      	ldrb	r3, [r3, #2]
    1f7a:	7093      	strb	r3, [r2, #2]
    1f7c:	4421      	add	r1, r4
    1f7e:	f8b0 9002 	ldrh.w	r9, [r0, #2]
    1f82:	460c      	mov	r4, r1
    1f84:	f1b9 0f3f 	cmp.w	r9, #63	; 0x3f
    1f88:	d80b      	bhi.n	1fa2 <usb_serial_write+0xfa>
    1f8a:	4b2f      	ldr	r3, [pc, #188]	; (2048 <usb_serial_write+0x1a0>)
    1f8c:	2205      	movs	r2, #5
    1f8e:	701a      	strb	r2, [r3, #0]
    1f90:	2e00      	cmp	r6, #0
    1f92:	d199      	bne.n	1ec8 <usb_serial_write+0x20>
    1f94:	9801      	ldr	r0, [sp, #4]
    1f96:	4a29      	ldr	r2, [pc, #164]	; (203c <usb_serial_write+0x194>)
    1f98:	2300      	movs	r3, #0
    1f9a:	7013      	strb	r3, [r2, #0]
    1f9c:	b003      	add	sp, #12
    1f9e:	e8bd 8ff0 	ldmia.w	sp!, {r4, r5, r6, r7, r8, r9, sl, fp, pc}
    1fa2:	2340      	movs	r3, #64	; 0x40
    1fa4:	8003      	strh	r3, [r0, #0]
    1fa6:	4601      	mov	r1, r0
    1fa8:	2004      	movs	r0, #4
    1faa:	f7ff f8b3 	bl	1114 <usb_tx>
    1fae:	2000      	movs	r0, #0
    1fb0:	f8c8 0000 	str.w	r0, [r8]
    1fb4:	e7e9      	b.n	1f8a <usb_serial_write+0xe2>
    1fb6:	4421      	add	r1, r4
    1fb8:	e7e1      	b.n	1f7e <usb_serial_write+0xd6>
    1fba:	4623      	mov	r3, r4
    1fbc:	e7d2      	b.n	1f64 <usb_serial_write+0xbc>
    1fbe:	3a01      	subs	r2, #1
    1fc0:	4421      	add	r1, r4
    1fc2:	f814 3b01 	ldrb.w	r3, [r4], #1
    1fc6:	f802 3f01 	strb.w	r3, [r2, #1]!
    1fca:	428c      	cmp	r4, r1
    1fcc:	d1f9      	bne.n	1fc2 <usb_serial_write+0x11a>
    1fce:	e7d6      	b.n	1f7e <usb_serial_write+0xd6>
    1fd0:	783b      	ldrb	r3, [r7, #0]
    1fd2:	b35b      	cbz	r3, 202c <usb_serial_write+0x184>
    1fd4:	4d1b      	ldr	r5, [pc, #108]	; (2044 <usb_serial_write+0x19c>)
    1fd6:	f24d 09e9 	movw	r9, #53481	; 0xd0e9
    1fda:	f04f 0a01 	mov.w	sl, #1
    1fde:	e008      	b.n	1ff2 <usb_serial_write+0x14a>
    1fe0:	f1b9 0901 	subs.w	r9, r9, #1
    1fe4:	d019      	beq.n	201a <usb_serial_write+0x172>
    1fe6:	782b      	ldrb	r3, [r5, #0]
    1fe8:	b9bb      	cbnz	r3, 201a <usb_serial_write+0x172>
    1fea:	f000 f8b1 	bl	2150 <yield>
    1fee:	783b      	ldrb	r3, [r7, #0]
    1ff0:	b1e3      	cbz	r3, 202c <usb_serial_write+0x184>
    1ff2:	2004      	movs	r0, #4
    1ff4:	f7ff f814 	bl	1020 <usb_tx_packet_count>
    1ff8:	2807      	cmp	r0, #7
    1ffa:	d8f1      	bhi.n	1fe0 <usb_serial_write+0x138>
    1ffc:	4b0f      	ldr	r3, [pc, #60]	; (203c <usb_serial_write+0x194>)
    1ffe:	f883 a000 	strb.w	sl, [r3]
    2002:	f7ff fea5 	bl	1d50 <usb_malloc>
    2006:	f8c8 0000 	str.w	r0, [r8]
    200a:	2800      	cmp	r0, #0
    200c:	f47f af60 	bne.w	1ed0 <usb_serial_write+0x28>
    2010:	4b0a      	ldr	r3, [pc, #40]	; (203c <usb_serial_write+0x194>)
    2012:	f1b9 0901 	subs.w	r9, r9, #1
    2016:	7018      	strb	r0, [r3, #0]
    2018:	d1e5      	bne.n	1fe6 <usb_serial_write+0x13e>
    201a:	2301      	movs	r3, #1
    201c:	f04f 30ff 	mov.w	r0, #4294967295
    2020:	702b      	strb	r3, [r5, #0]
    2022:	b003      	add	sp, #12
    2024:	e8bd 8ff0 	ldmia.w	sp!, {r4, r5, r6, r7, r8, r9, sl, fp, pc}
    2028:	4619      	mov	r1, r3
    202a:	e7a8      	b.n	1f7e <usb_serial_write+0xd6>
    202c:	4a03      	ldr	r2, [pc, #12]	; (203c <usb_serial_write+0x194>)
    202e:	2300      	movs	r3, #0
    2030:	f04f 30ff 	mov.w	r0, #4294967295
    2034:	7013      	strb	r3, [r2, #0]
    2036:	b003      	add	sp, #12
    2038:	e8bd 8ff0 	ldmia.w	sp!, {r4, r5, r6, r7, r8, r9, sl, fp, pc}
    203c:	1fff9601 	.word	0x1fff9601
    2040:	1fff95f8 	.word	0x1fff95f8
    2044:	1fff9608 	.word	0x1fff9608
    2048:	1fff9600 	.word	0x1fff9600
    204c:	1fff9604 	.word	0x1fff9604

00002050 <usb_serial_putchar>:
    2050:	b500      	push	{lr}
    2052:	b083      	sub	sp, #12
    2054:	ab02      	add	r3, sp, #8
    2056:	2101      	movs	r1, #1
    2058:	f803 0d01 	strb.w	r0, [r3, #-1]!
    205c:	4618      	mov	r0, r3
    205e:	f7ff ff23 	bl	1ea8 <usb_serial_write>
    2062:	b003      	add	sp, #12
    2064:	f85d fb04 	ldr.w	pc, [sp], #4

00002068 <usb_serial_write_buffer_free>:
    2068:	b538      	push	{r3, r4, r5, lr}
    206a:	4d0e      	ldr	r5, [pc, #56]	; (20a4 <usb_serial_write_buffer_free+0x3c>)
    206c:	4c0e      	ldr	r4, [pc, #56]	; (20a8 <usb_serial_write_buffer_free+0x40>)
    206e:	6828      	ldr	r0, [r5, #0]
    2070:	2301      	movs	r3, #1
    2072:	7023      	strb	r3, [r4, #0]
    2074:	b128      	cbz	r0, 2082 <usb_serial_write_buffer_free+0x1a>
    2076:	8840      	ldrh	r0, [r0, #2]
    2078:	2300      	movs	r3, #0
    207a:	7023      	strb	r3, [r4, #0]
    207c:	f1c0 0040 	rsb	r0, r0, #64	; 0x40
    2080:	bd38      	pop	{r3, r4, r5, pc}
    2082:	4b0a      	ldr	r3, [pc, #40]	; (20ac <usb_serial_write_buffer_free+0x44>)
    2084:	781b      	ldrb	r3, [r3, #0]
    2086:	b913      	cbnz	r3, 208e <usb_serial_write_buffer_free+0x26>
    2088:	2000      	movs	r0, #0
    208a:	7020      	strb	r0, [r4, #0]
    208c:	bd38      	pop	{r3, r4, r5, pc}
    208e:	2004      	movs	r0, #4
    2090:	f7fe ffc6 	bl	1020 <usb_tx_packet_count>
    2094:	2807      	cmp	r0, #7
    2096:	d8f7      	bhi.n	2088 <usb_serial_write_buffer_free+0x20>
    2098:	f7ff fe5a 	bl	1d50 <usb_malloc>
    209c:	6028      	str	r0, [r5, #0]
    209e:	2800      	cmp	r0, #0
    20a0:	d1e9      	bne.n	2076 <usb_serial_write_buffer_free+0xe>
    20a2:	e7f1      	b.n	2088 <usb_serial_write_buffer_free+0x20>
    20a4:	1fff9604 	.word	0x1fff9604
    20a8:	1fff9601 	.word	0x1fff9601
    20ac:	1fff95f8 	.word	0x1fff95f8

000020b0 <usb_serial_flush_output>:
    20b0:	b5f8      	push	{r3, r4, r5, r6, r7, lr}
    20b2:	4b11      	ldr	r3, [pc, #68]	; (20f8 <usb_serial_flush_output+0x48>)
    20b4:	781b      	ldrb	r3, [r3, #0]
    20b6:	b18b      	cbz	r3, 20dc <usb_serial_flush_output+0x2c>
    20b8:	4e10      	ldr	r6, [pc, #64]	; (20fc <usb_serial_flush_output+0x4c>)
    20ba:	4d11      	ldr	r5, [pc, #68]	; (2100 <usb_serial_flush_output+0x50>)
    20bc:	6834      	ldr	r4, [r6, #0]
    20be:	2701      	movs	r7, #1
    20c0:	702f      	strb	r7, [r5, #0]
    20c2:	b164      	cbz	r4, 20de <usb_serial_flush_output+0x2e>
    20c4:	4a0f      	ldr	r2, [pc, #60]	; (2104 <usb_serial_flush_output+0x54>)
    20c6:	8863      	ldrh	r3, [r4, #2]
    20c8:	2700      	movs	r7, #0
    20ca:	7017      	strb	r7, [r2, #0]
    20cc:	4621      	mov	r1, r4
    20ce:	8023      	strh	r3, [r4, #0]
    20d0:	2004      	movs	r0, #4
    20d2:	f7ff f81f 	bl	1114 <usb_tx>
    20d6:	6037      	str	r7, [r6, #0]
    20d8:	2300      	movs	r3, #0
    20da:	702b      	strb	r3, [r5, #0]
    20dc:	bdf8      	pop	{r3, r4, r5, r6, r7, pc}
    20de:	f7ff fe37 	bl	1d50 <usb_malloc>
    20e2:	4b08      	ldr	r3, [pc, #32]	; (2104 <usb_serial_flush_output+0x54>)
    20e4:	b128      	cbz	r0, 20f2 <usb_serial_flush_output+0x42>
    20e6:	4601      	mov	r1, r0
    20e8:	2004      	movs	r0, #4
    20ea:	701c      	strb	r4, [r3, #0]
    20ec:	f7ff f812 	bl	1114 <usb_tx>
    20f0:	e7f2      	b.n	20d8 <usb_serial_flush_output+0x28>
    20f2:	701f      	strb	r7, [r3, #0]
    20f4:	e7f0      	b.n	20d8 <usb_serial_flush_output+0x28>
    20f6:	bf00      	nop
    20f8:	1fff95f8 	.word	0x1fff95f8
    20fc:	1fff9604 	.word	0x1fff9604
    2100:	1fff9601 	.word	0x1fff9601
    2104:	1fff9600 	.word	0x1fff9600

00002108 <usb_serial_flush_callback>:
    2108:	b538      	push	{r3, r4, r5, lr}
    210a:	4b0e      	ldr	r3, [pc, #56]	; (2144 <usb_serial_flush_callback+0x3c>)
    210c:	781b      	ldrb	r3, [r3, #0]
    210e:	b973      	cbnz	r3, 212e <usb_serial_flush_callback+0x26>
    2110:	4c0d      	ldr	r4, [pc, #52]	; (2148 <usb_serial_flush_callback+0x40>)
    2112:	6821      	ldr	r1, [r4, #0]
    2114:	b161      	cbz	r1, 2130 <usb_serial_flush_callback+0x28>
    2116:	f003 05ff 	and.w	r5, r3, #255	; 0xff
    211a:	884b      	ldrh	r3, [r1, #2]
    211c:	800b      	strh	r3, [r1, #0]
    211e:	2004      	movs	r0, #4
    2120:	f7fe fff8 	bl	1114 <usb_tx>
    2124:	6025      	str	r5, [r4, #0]
    2126:	bd38      	pop	{r3, r4, r5, pc}
    2128:	4b08      	ldr	r3, [pc, #32]	; (214c <usb_serial_flush_callback+0x44>)
    212a:	2201      	movs	r2, #1
    212c:	701a      	strb	r2, [r3, #0]
    212e:	bd38      	pop	{r3, r4, r5, pc}
    2130:	f7ff fe0e 	bl	1d50 <usb_malloc>
    2134:	2800      	cmp	r0, #0
    2136:	d0f7      	beq.n	2128 <usb_serial_flush_callback+0x20>
    2138:	4601      	mov	r1, r0
    213a:	e8bd 4038 	ldmia.w	sp!, {r3, r4, r5, lr}
    213e:	2004      	movs	r0, #4
    2140:	f7fe bfe8 	b.w	1114 <usb_tx>
    2144:	1fff9601 	.word	0x1fff9601
    2148:	1fff9604 	.word	0x1fff9604
    214c:	1fff9600 	.word	0x1fff9600

00002150 <yield>:
    2150:	b538      	push	{r3, r4, r5, lr}
    2152:	4c22      	ldr	r4, [pc, #136]	; (21dc <yield+0x8c>)
    2154:	7823      	ldrb	r3, [r4, #0]
    2156:	b103      	cbz	r3, 215a <yield+0xa>
    2158:	bd38      	pop	{r3, r4, r5, pc}
    215a:	2301      	movs	r3, #1
    215c:	7023      	strb	r3, [r4, #0]
    215e:	f7ff fe79 	bl	1e54 <usb_serial_available>
    2162:	bb70      	cbnz	r0, 21c2 <yield+0x72>
    2164:	f000 fa26 	bl	25b4 <serial_available>
    2168:	bb40      	cbnz	r0, 21bc <yield+0x6c>
    216a:	f000 fab9 	bl	26e0 <serial2_available>
    216e:	bb10      	cbnz	r0, 21b6 <yield+0x66>
    2170:	f000 fb4c 	bl	280c <serial3_available>
    2174:	b9e0      	cbnz	r0, 21b0 <yield+0x60>
    2176:	2300      	movs	r3, #0
    2178:	7023      	strb	r3, [r4, #0]
    217a:	f3ef 8305 	mrs	r3, IPSR
    217e:	2b00      	cmp	r3, #0
    2180:	d1ea      	bne.n	2158 <yield+0x8>
    2182:	f3ef 8110 	mrs	r1, PRIMASK
    2186:	b672      	cpsid	i
    2188:	4b15      	ldr	r3, [pc, #84]	; (21e0 <yield+0x90>)
    218a:	6818      	ldr	r0, [r3, #0]
    218c:	b1e0      	cbz	r0, 21c8 <yield+0x78>
    218e:	4c15      	ldr	r4, [pc, #84]	; (21e4 <yield+0x94>)
    2190:	7822      	ldrb	r2, [r4, #0]
    2192:	b9ca      	cbnz	r2, 21c8 <yield+0x78>
    2194:	6945      	ldr	r5, [r0, #20]
    2196:	601d      	str	r5, [r3, #0]
    2198:	2301      	movs	r3, #1
    219a:	7023      	strb	r3, [r4, #0]
    219c:	b1c5      	cbz	r5, 21d0 <yield+0x80>
    219e:	61aa      	str	r2, [r5, #24]
    21a0:	b901      	cbnz	r1, 21a4 <yield+0x54>
    21a2:	b662      	cpsie	i
    21a4:	2500      	movs	r5, #0
    21a6:	7745      	strb	r5, [r0, #29]
    21a8:	6883      	ldr	r3, [r0, #8]
    21aa:	4798      	blx	r3
    21ac:	7025      	strb	r5, [r4, #0]
    21ae:	e7d3      	b.n	2158 <yield+0x8>
    21b0:	f000 f98e 	bl	24d0 <serialEvent3()>
    21b4:	e7df      	b.n	2176 <yield+0x26>
    21b6:	f000 f989 	bl	24cc <serialEvent2()>
    21ba:	e7d9      	b.n	2170 <yield+0x20>
    21bc:	f000 f984 	bl	24c8 <serialEvent1()>
    21c0:	e7d3      	b.n	216a <yield+0x1a>
    21c2:	f7ff fdc3 	bl	1d4c <serialEvent()>
    21c6:	e7cd      	b.n	2164 <yield+0x14>
    21c8:	2900      	cmp	r1, #0
    21ca:	d1c5      	bne.n	2158 <yield+0x8>
    21cc:	b662      	cpsie	i
    21ce:	bd38      	pop	{r3, r4, r5, pc}
    21d0:	4b05      	ldr	r3, [pc, #20]	; (21e8 <yield+0x98>)
    21d2:	601d      	str	r5, [r3, #0]
    21d4:	2900      	cmp	r1, #0
    21d6:	d1e5      	bne.n	21a4 <yield+0x54>
    21d8:	e7e3      	b.n	21a2 <yield+0x52>
    21da:	bf00      	nop
    21dc:	1fff9611 	.word	0x1fff9611
    21e0:	1fff9624 	.word	0x1fff9624
    21e4:	1fff9628 	.word	0x1fff9628
    21e8:	1fff9620 	.word	0x1fff9620

000021ec <EventResponder::triggerEvent(int, void*)>:
    21ec:	b410      	push	{r4}
    21ee:	7f04      	ldrb	r4, [r0, #28]
    21f0:	6041      	str	r1, [r0, #4]
    21f2:	2c02      	cmp	r4, #2
    21f4:	4603      	mov	r3, r0
    21f6:	60c2      	str	r2, [r0, #12]
    21f8:	d00f      	beq.n	221a <EventResponder::triggerEvent(int, void*)+0x2e>
    21fa:	f3ef 8110 	mrs	r1, PRIMASK
    21fe:	b672      	cpsid	i
    2200:	7f42      	ldrb	r2, [r0, #29]
    2202:	b932      	cbnz	r2, 2212 <EventResponder::triggerEvent(int, void*)+0x26>
    2204:	7f00      	ldrb	r0, [r0, #28]
    2206:	2801      	cmp	r0, #1
    2208:	d00a      	beq.n	2220 <EventResponder::triggerEvent(int, void*)+0x34>
    220a:	2803      	cmp	r0, #3
    220c:	d012      	beq.n	2234 <EventResponder::triggerEvent(int, void*)+0x48>
    220e:	2201      	movs	r2, #1
    2210:	775a      	strb	r2, [r3, #29]
    2212:	b901      	cbnz	r1, 2216 <EventResponder::triggerEvent(int, void*)+0x2a>
    2214:	b662      	cpsie	i
    2216:	bc10      	pop	{r4}
    2218:	4770      	bx	lr
    221a:	6883      	ldr	r3, [r0, #8]
    221c:	bc10      	pop	{r4}
    221e:	4718      	bx	r3
    2220:	4c11      	ldr	r4, [pc, #68]	; (2268 <EventResponder::triggerEvent(int, void*)+0x7c>)
    2222:	6820      	ldr	r0, [r4, #0]
    2224:	b1a0      	cbz	r0, 2250 <EventResponder::triggerEvent(int, void*)+0x64>
    2226:	4811      	ldr	r0, [pc, #68]	; (226c <EventResponder::triggerEvent(int, void*)+0x80>)
    2228:	615a      	str	r2, [r3, #20]
    222a:	6802      	ldr	r2, [r0, #0]
    222c:	619a      	str	r2, [r3, #24]
    222e:	6003      	str	r3, [r0, #0]
    2230:	6153      	str	r3, [r2, #20]
    2232:	e7ec      	b.n	220e <EventResponder::triggerEvent(int, void*)+0x22>
    2234:	4c0e      	ldr	r4, [pc, #56]	; (2270 <EventResponder::triggerEvent(int, void*)+0x84>)
    2236:	6820      	ldr	r0, [r4, #0]
    2238:	b180      	cbz	r0, 225c <EventResponder::triggerEvent(int, void*)+0x70>
    223a:	480e      	ldr	r0, [pc, #56]	; (2274 <EventResponder::triggerEvent(int, void*)+0x88>)
    223c:	615a      	str	r2, [r3, #20]
    223e:	6802      	ldr	r2, [r0, #0]
    2240:	619a      	str	r2, [r3, #24]
    2242:	6003      	str	r3, [r0, #0]
    2244:	6153      	str	r3, [r2, #20]
    2246:	4a0c      	ldr	r2, [pc, #48]	; (2278 <EventResponder::triggerEvent(int, void*)+0x8c>)
    2248:	f04f 5080 	mov.w	r0, #268435456	; 0x10000000
    224c:	6010      	str	r0, [r2, #0]
    224e:	e7de      	b.n	220e <EventResponder::triggerEvent(int, void*)+0x22>
    2250:	4a06      	ldr	r2, [pc, #24]	; (226c <EventResponder::triggerEvent(int, void*)+0x80>)
    2252:	6158      	str	r0, [r3, #20]
    2254:	6198      	str	r0, [r3, #24]
    2256:	6023      	str	r3, [r4, #0]
    2258:	6013      	str	r3, [r2, #0]
    225a:	e7d8      	b.n	220e <EventResponder::triggerEvent(int, void*)+0x22>
    225c:	4a05      	ldr	r2, [pc, #20]	; (2274 <EventResponder::triggerEvent(int, void*)+0x88>)
    225e:	6158      	str	r0, [r3, #20]
    2260:	6198      	str	r0, [r3, #24]
    2262:	6023      	str	r3, [r4, #0]
    2264:	6013      	str	r3, [r2, #0]
    2266:	e7ee      	b.n	2246 <EventResponder::triggerEvent(int, void*)+0x5a>
    2268:	1fff9624 	.word	0x1fff9624
    226c:	1fff9620 	.word	0x1fff9620
    2270:	1fff9614 	.word	0x1fff9614
    2274:	1fff9618 	.word	0x1fff9618
    2278:	e000ed04 	.word	0xe000ed04

0000227c <pendablesrvreq_isr>:
    227c:	b570      	push	{r4, r5, r6, lr}
    227e:	f3ef 8210 	mrs	r2, PRIMASK
    2282:	b672      	cpsid	i
    2284:	4c0c      	ldr	r4, [pc, #48]	; (22b8 <pendablesrvreq_isr+0x3c>)
    2286:	6820      	ldr	r0, [r4, #0]
    2288:	b180      	cbz	r0, 22ac <pendablesrvreq_isr+0x30>
    228a:	4e0c      	ldr	r6, [pc, #48]	; (22bc <pendablesrvreq_isr+0x40>)
    228c:	2500      	movs	r5, #0
    228e:	6943      	ldr	r3, [r0, #20]
    2290:	6023      	str	r3, [r4, #0]
    2292:	b173      	cbz	r3, 22b2 <pendablesrvreq_isr+0x36>
    2294:	619d      	str	r5, [r3, #24]
    2296:	b902      	cbnz	r2, 229a <pendablesrvreq_isr+0x1e>
    2298:	b662      	cpsie	i
    229a:	7745      	strb	r5, [r0, #29]
    229c:	6883      	ldr	r3, [r0, #8]
    229e:	4798      	blx	r3
    22a0:	f3ef 8210 	mrs	r2, PRIMASK
    22a4:	b672      	cpsid	i
    22a6:	6820      	ldr	r0, [r4, #0]
    22a8:	2800      	cmp	r0, #0
    22aa:	d1f0      	bne.n	228e <pendablesrvreq_isr+0x12>
    22ac:	b902      	cbnz	r2, 22b0 <pendablesrvreq_isr+0x34>
    22ae:	b662      	cpsie	i
    22b0:	bd70      	pop	{r4, r5, r6, pc}
    22b2:	6033      	str	r3, [r6, #0]
    22b4:	e7ef      	b.n	2296 <pendablesrvreq_isr+0x1a>
    22b6:	bf00      	nop
    22b8:	1fff9614 	.word	0x1fff9614
    22bc:	1fff9618 	.word	0x1fff9618

000022c0 <MillisTimer::runFromTimer()>:
    22c0:	e92d 43f8 	stmdb	sp!, {r3, r4, r5, r6, r7, r8, r9, lr}
    22c4:	4d74      	ldr	r5, [pc, #464]	; (2498 <MillisTimer::runFromTimer()+0x1d8>)
    22c6:	682c      	ldr	r4, [r5, #0]
    22c8:	2c00      	cmp	r4, #0
    22ca:	d031      	beq.n	2330 <MillisTimer::runFromTimer()+0x70>
    22cc:	6823      	ldr	r3, [r4, #0]
    22ce:	2b00      	cmp	r3, #0
    22d0:	d12c      	bne.n	232c <MillisTimer::runFromTimer()+0x6c>
    22d2:	f8df 91d8 	ldr.w	r9, [pc, #472]	; 24ac <MillisTimer::runFromTimer()+0x1ec>
    22d6:	4f71      	ldr	r7, [pc, #452]	; (249c <MillisTimer::runFromTimer()+0x1dc>)
    22d8:	f8df 81d4 	ldr.w	r8, [pc, #468]	; 24b0 <MillisTimer::runFromTimer()+0x1f0>
    22dc:	461e      	mov	r6, r3
    22de:	68a3      	ldr	r3, [r4, #8]
    22e0:	b103      	cbz	r3, 22e4 <MillisTimer::runFromTimer()+0x24>
    22e2:	60de      	str	r6, [r3, #12]
    22e4:	6920      	ldr	r0, [r4, #16]
    22e6:	602b      	str	r3, [r5, #0]
    22e8:	6803      	ldr	r3, [r0, #0]
    22ea:	7526      	strb	r6, [r4, #20]
    22ec:	681b      	ldr	r3, [r3, #0]
    22ee:	454b      	cmp	r3, r9
    22f0:	d157      	bne.n	23a2 <MillisTimer::runFromTimer()+0xe2>
    22f2:	7f03      	ldrb	r3, [r0, #28]
    22f4:	6046      	str	r6, [r0, #4]
    22f6:	2b02      	cmp	r3, #2
    22f8:	60c4      	str	r4, [r0, #12]
    22fa:	d056      	beq.n	23aa <MillisTimer::runFromTimer()+0xea>
    22fc:	f3ef 8210 	mrs	r2, PRIMASK
    2300:	b672      	cpsid	i
    2302:	7f43      	ldrb	r3, [r0, #29]
    2304:	b943      	cbnz	r3, 2318 <MillisTimer::runFromTimer()+0x58>
    2306:	7f01      	ldrb	r1, [r0, #28]
    2308:	2901      	cmp	r1, #1
    230a:	f000 8088 	beq.w	241e <MillisTimer::runFromTimer()+0x15e>
    230e:	2903      	cmp	r1, #3
    2310:	f000 8091 	beq.w	2436 <MillisTimer::runFromTimer()+0x176>
    2314:	2301      	movs	r3, #1
    2316:	7743      	strb	r3, [r0, #29]
    2318:	b902      	cbnz	r2, 231c <MillisTimer::runFromTimer()+0x5c>
    231a:	b662      	cpsie	i
    231c:	6863      	ldr	r3, [r4, #4]
    231e:	2b00      	cmp	r3, #0
    2320:	d12c      	bne.n	237c <MillisTimer::runFromTimer()+0xbc>
    2322:	682c      	ldr	r4, [r5, #0]
    2324:	b124      	cbz	r4, 2330 <MillisTimer::runFromTimer()+0x70>
    2326:	6823      	ldr	r3, [r4, #0]
    2328:	2b00      	cmp	r3, #0
    232a:	d0d8      	beq.n	22de <MillisTimer::runFromTimer()+0x1e>
    232c:	3b01      	subs	r3, #1
    232e:	6023      	str	r3, [r4, #0]
    2330:	f3ef 8310 	mrs	r3, PRIMASK
    2334:	b672      	cpsid	i
    2336:	4a5a      	ldr	r2, [pc, #360]	; (24a0 <MillisTimer::runFromTimer()+0x1e0>)
    2338:	2100      	movs	r1, #0
    233a:	6810      	ldr	r0, [r2, #0]
    233c:	6011      	str	r1, [r2, #0]
    233e:	b903      	cbnz	r3, 2342 <MillisTimer::runFromTimer()+0x82>
    2340:	b662      	cpsie	i
    2342:	2800      	cmp	r0, #0
    2344:	f000 80a5 	beq.w	2492 <MillisTimer::runFromTimer()+0x1d2>
    2348:	682c      	ldr	r4, [r5, #0]
    234a:	2702      	movs	r7, #2
    234c:	f04f 0e00 	mov.w	lr, #0
    2350:	6886      	ldr	r6, [r0, #8]
    2352:	2c00      	cmp	r4, #0
    2354:	d05f      	beq.n	2416 <MillisTimer::runFromTimer()+0x156>
    2356:	6803      	ldr	r3, [r0, #0]
    2358:	6821      	ldr	r1, [r4, #0]
    235a:	428b      	cmp	r3, r1
    235c:	d23a      	bcs.n	23d4 <MillisTimer::runFromTimer()+0x114>
    235e:	1acb      	subs	r3, r1, r3
    2360:	6084      	str	r4, [r0, #8]
    2362:	f8c0 e00c 	str.w	lr, [r0, #12]
    2366:	4601      	mov	r1, r0
    2368:	6023      	str	r3, [r4, #0]
    236a:	60e0      	str	r0, [r4, #12]
    236c:	7507      	strb	r7, [r0, #20]
    236e:	4630      	mov	r0, r6
    2370:	460c      	mov	r4, r1
    2372:	2e00      	cmp	r6, #0
    2374:	d1ec      	bne.n	2350 <MillisTimer::runFromTimer()+0x90>
    2376:	6029      	str	r1, [r5, #0]
    2378:	e8bd 83f8 	ldmia.w	sp!, {r3, r4, r5, r6, r7, r8, r9, pc}
    237c:	6828      	ldr	r0, [r5, #0]
    237e:	4a46      	ldr	r2, [pc, #280]	; (2498 <MillisTimer::runFromTimer()+0x1d8>)
    2380:	6023      	str	r3, [r4, #0]
    2382:	2800      	cmp	r0, #0
    2384:	d073      	beq.n	246e <MillisTimer::runFromTimer()+0x1ae>
    2386:	6801      	ldr	r1, [r0, #0]
    2388:	428b      	cmp	r3, r1
    238a:	d211      	bcs.n	23b0 <MillisTimer::runFromTimer()+0xf0>
    238c:	1acb      	subs	r3, r1, r3
    238e:	60a0      	str	r0, [r4, #8]
    2390:	60e6      	str	r6, [r4, #12]
    2392:	6003      	str	r3, [r0, #0]
    2394:	60c4      	str	r4, [r0, #12]
    2396:	6014      	str	r4, [r2, #0]
    2398:	4620      	mov	r0, r4
    239a:	2302      	movs	r3, #2
    239c:	7523      	strb	r3, [r4, #20]
    239e:	4604      	mov	r4, r0
    23a0:	e7c1      	b.n	2326 <MillisTimer::runFromTimer()+0x66>
    23a2:	4622      	mov	r2, r4
    23a4:	2100      	movs	r1, #0
    23a6:	4798      	blx	r3
    23a8:	e7b8      	b.n	231c <MillisTimer::runFromTimer()+0x5c>
    23aa:	6883      	ldr	r3, [r0, #8]
    23ac:	4798      	blx	r3
    23ae:	e7b5      	b.n	231c <MillisTimer::runFromTimer()+0x5c>
    23b0:	4686      	mov	lr, r0
    23b2:	e003      	b.n	23bc <MillisTimer::runFromTimer()+0xfc>
    23b4:	6811      	ldr	r1, [r2, #0]
    23b6:	428b      	cmp	r3, r1
    23b8:	4696      	mov	lr, r2
    23ba:	d349      	bcc.n	2450 <MillisTimer::runFromTimer()+0x190>
    23bc:	f8de 2008 	ldr.w	r2, [lr, #8]
    23c0:	1a5b      	subs	r3, r3, r1
    23c2:	6023      	str	r3, [r4, #0]
    23c4:	2a00      	cmp	r2, #0
    23c6:	d1f5      	bne.n	23b4 <MillisTimer::runFromTimer()+0xf4>
    23c8:	60a2      	str	r2, [r4, #8]
    23ca:	f8c4 e00c 	str.w	lr, [r4, #12]
    23ce:	f8ce 4008 	str.w	r4, [lr, #8]
    23d2:	e7e2      	b.n	239a <MillisTimer::runFromTimer()+0xda>
    23d4:	46a4      	mov	ip, r4
    23d6:	e003      	b.n	23e0 <MillisTimer::runFromTimer()+0x120>
    23d8:	6811      	ldr	r1, [r2, #0]
    23da:	428b      	cmp	r3, r1
    23dc:	4694      	mov	ip, r2
    23de:	d30c      	bcc.n	23fa <MillisTimer::runFromTimer()+0x13a>
    23e0:	f8dc 2008 	ldr.w	r2, [ip, #8]
    23e4:	1a5b      	subs	r3, r3, r1
    23e6:	6003      	str	r3, [r0, #0]
    23e8:	2a00      	cmp	r2, #0
    23ea:	d1f5      	bne.n	23d8 <MillisTimer::runFromTimer()+0x118>
    23ec:	6082      	str	r2, [r0, #8]
    23ee:	f8c0 c00c 	str.w	ip, [r0, #12]
    23f2:	4621      	mov	r1, r4
    23f4:	f8cc 0008 	str.w	r0, [ip, #8]
    23f8:	e7b8      	b.n	236c <MillisTimer::runFromTimer()+0xac>
    23fa:	68d2      	ldr	r2, [r2, #12]
    23fc:	60c2      	str	r2, [r0, #12]
    23fe:	f8c0 c008 	str.w	ip, [r0, #8]
    2402:	f8cc 000c 	str.w	r0, [ip, #12]
    2406:	68c2      	ldr	r2, [r0, #12]
    2408:	1acb      	subs	r3, r1, r3
    240a:	6090      	str	r0, [r2, #8]
    240c:	4621      	mov	r1, r4
    240e:	f8cc 3000 	str.w	r3, [ip]
    2412:	7507      	strb	r7, [r0, #20]
    2414:	e7ab      	b.n	236e <MillisTimer::runFromTimer()+0xae>
    2416:	6084      	str	r4, [r0, #8]
    2418:	60c4      	str	r4, [r0, #12]
    241a:	4601      	mov	r1, r0
    241c:	e7a6      	b.n	236c <MillisTimer::runFromTimer()+0xac>
    241e:	f8df e094 	ldr.w	lr, [pc, #148]	; 24b4 <MillisTimer::runFromTimer()+0x1f4>
    2422:	f8de 1000 	ldr.w	r1, [lr]
    2426:	b339      	cbz	r1, 2478 <MillisTimer::runFromTimer()+0x1b8>
    2428:	491e      	ldr	r1, [pc, #120]	; (24a4 <MillisTimer::runFromTimer()+0x1e4>)
    242a:	6143      	str	r3, [r0, #20]
    242c:	680b      	ldr	r3, [r1, #0]
    242e:	6183      	str	r3, [r0, #24]
    2430:	6008      	str	r0, [r1, #0]
    2432:	6158      	str	r0, [r3, #20]
    2434:	e76e      	b.n	2314 <MillisTimer::runFromTimer()+0x54>
    2436:	6839      	ldr	r1, [r7, #0]
    2438:	b329      	cbz	r1, 2486 <MillisTimer::runFromTimer()+0x1c6>
    243a:	491b      	ldr	r1, [pc, #108]	; (24a8 <MillisTimer::runFromTimer()+0x1e8>)
    243c:	6143      	str	r3, [r0, #20]
    243e:	680b      	ldr	r3, [r1, #0]
    2440:	6183      	str	r3, [r0, #24]
    2442:	6008      	str	r0, [r1, #0]
    2444:	6158      	str	r0, [r3, #20]
    2446:	f04f 5380 	mov.w	r3, #268435456	; 0x10000000
    244a:	f8c8 3000 	str.w	r3, [r8]
    244e:	e761      	b.n	2314 <MillisTimer::runFromTimer()+0x54>
    2450:	68d2      	ldr	r2, [r2, #12]
    2452:	60e2      	str	r2, [r4, #12]
    2454:	f8c4 e008 	str.w	lr, [r4, #8]
    2458:	f8ce 400c 	str.w	r4, [lr, #12]
    245c:	68e2      	ldr	r2, [r4, #12]
    245e:	1acb      	subs	r3, r1, r3
    2460:	2102      	movs	r1, #2
    2462:	6094      	str	r4, [r2, #8]
    2464:	f8ce 3000 	str.w	r3, [lr]
    2468:	7521      	strb	r1, [r4, #20]
    246a:	4604      	mov	r4, r0
    246c:	e75b      	b.n	2326 <MillisTimer::runFromTimer()+0x66>
    246e:	60a0      	str	r0, [r4, #8]
    2470:	60e0      	str	r0, [r4, #12]
    2472:	6014      	str	r4, [r2, #0]
    2474:	4620      	mov	r0, r4
    2476:	e790      	b.n	239a <MillisTimer::runFromTimer()+0xda>
    2478:	4b0a      	ldr	r3, [pc, #40]	; (24a4 <MillisTimer::runFromTimer()+0x1e4>)
    247a:	6141      	str	r1, [r0, #20]
    247c:	6181      	str	r1, [r0, #24]
    247e:	f8ce 0000 	str.w	r0, [lr]
    2482:	6018      	str	r0, [r3, #0]
    2484:	e746      	b.n	2314 <MillisTimer::runFromTimer()+0x54>
    2486:	4b08      	ldr	r3, [pc, #32]	; (24a8 <MillisTimer::runFromTimer()+0x1e8>)
    2488:	6141      	str	r1, [r0, #20]
    248a:	6181      	str	r1, [r0, #24]
    248c:	6038      	str	r0, [r7, #0]
    248e:	6018      	str	r0, [r3, #0]
    2490:	e7d9      	b.n	2446 <MillisTimer::runFromTimer()+0x186>
    2492:	e8bd 83f8 	ldmia.w	sp!, {r3, r4, r5, r6, r7, r8, r9, pc}
    2496:	bf00      	nop
    2498:	1fff961c 	.word	0x1fff961c
    249c:	1fff9614 	.word	0x1fff9614
    24a0:	1fff962c 	.word	0x1fff962c
    24a4:	1fff9620 	.word	0x1fff9620
    24a8:	1fff9618 	.word	0x1fff9618
    24ac:	000021ed 	.word	0x000021ed
    24b0:	e000ed04 	.word	0xe000ed04
    24b4:	1fff9624 	.word	0x1fff9624

000024b8 <systick_isr>:
    24b8:	4a02      	ldr	r2, [pc, #8]	; (24c4 <systick_isr+0xc>)
    24ba:	6813      	ldr	r3, [r2, #0]
    24bc:	3301      	adds	r3, #1
    24be:	6013      	str	r3, [r2, #0]
    24c0:	f7ff befe 	b.w	22c0 <MillisTimer::runFromTimer()>
    24c4:	1fff9514 	.word	0x1fff9514

000024c8 <serialEvent1()>:
    24c8:	4770      	bx	lr
    24ca:	bf00      	nop

000024cc <serialEvent2()>:
    24cc:	4770      	bx	lr
    24ce:	bf00      	nop

000024d0 <serialEvent3()>:
    24d0:	4770      	bx	lr
    24d2:	bf00      	nop

000024d4 <analog_init>:
    24d4:	b430      	push	{r4, r5}
    24d6:	4829      	ldr	r0, [pc, #164]	; (257c <analog_init+0xa8>)
    24d8:	4a29      	ldr	r2, [pc, #164]	; (2580 <analog_init+0xac>)
    24da:	4b2a      	ldr	r3, [pc, #168]	; (2584 <analog_init+0xb0>)
    24dc:	4d2a      	ldr	r5, [pc, #168]	; (2588 <analog_init+0xb4>)
    24de:	2460      	movs	r4, #96	; 0x60
    24e0:	21e1      	movs	r1, #225	; 0xe1
    24e2:	7004      	strb	r4, [r0, #0]
    24e4:	7011      	strb	r1, [r2, #0]
    24e6:	781b      	ldrb	r3, [r3, #0]
    24e8:	4c28      	ldr	r4, [pc, #160]	; (258c <analog_init+0xb8>)
    24ea:	2b08      	cmp	r3, #8
    24ec:	d030      	beq.n	2550 <analog_init+0x7c>
    24ee:	2b0a      	cmp	r3, #10
    24f0:	4827      	ldr	r0, [pc, #156]	; (2590 <analog_init+0xbc>)
    24f2:	4928      	ldr	r1, [pc, #160]	; (2594 <analog_init+0xc0>)
    24f4:	d037      	beq.n	2566 <analog_init+0x92>
    24f6:	2b0c      	cmp	r3, #12
    24f8:	bf0c      	ite	eq
    24fa:	2235      	moveq	r2, #53	; 0x35
    24fc:	225d      	movne	r2, #93	; 0x5d
    24fe:	2312      	movs	r3, #18
    2500:	602a      	str	r2, [r5, #0]
    2502:	6023      	str	r3, [r4, #0]
    2504:	6002      	str	r2, [r0, #0]
    2506:	600b      	str	r3, [r1, #0]
    2508:	4b23      	ldr	r3, [pc, #140]	; (2598 <analog_init+0xc4>)
    250a:	4924      	ldr	r1, [pc, #144]	; (259c <analog_init+0xc8>)
    250c:	781b      	ldrb	r3, [r3, #0]
    250e:	4a24      	ldr	r2, [pc, #144]	; (25a0 <analog_init+0xcc>)
    2510:	b1bb      	cbz	r3, 2542 <analog_init+0x6e>
    2512:	2301      	movs	r3, #1
    2514:	600b      	str	r3, [r1, #0]
    2516:	6013      	str	r3, [r2, #0]
    2518:	4b22      	ldr	r3, [pc, #136]	; (25a4 <analog_init+0xd0>)
    251a:	4923      	ldr	r1, [pc, #140]	; (25a8 <analog_init+0xd4>)
    251c:	781b      	ldrb	r3, [r3, #0]
    251e:	4a23      	ldr	r2, [pc, #140]	; (25ac <analog_init+0xd8>)
    2520:	2b01      	cmp	r3, #1
    2522:	d926      	bls.n	2572 <analog_init+0x9e>
    2524:	2b04      	cmp	r3, #4
    2526:	d90f      	bls.n	2548 <analog_init+0x74>
    2528:	2b08      	cmp	r3, #8
    252a:	d91e      	bls.n	256a <analog_init+0x96>
    252c:	2b10      	cmp	r3, #16
    252e:	bf94      	ite	ls
    2530:	2386      	movls	r3, #134	; 0x86
    2532:	2387      	movhi	r3, #135	; 0x87
    2534:	600b      	str	r3, [r1, #0]
    2536:	6013      	str	r3, [r2, #0]
    2538:	4b1d      	ldr	r3, [pc, #116]	; (25b0 <analog_init+0xdc>)
    253a:	2201      	movs	r2, #1
    253c:	701a      	strb	r2, [r3, #0]
    253e:	bc30      	pop	{r4, r5}
    2540:	4770      	bx	lr
    2542:	600b      	str	r3, [r1, #0]
    2544:	6013      	str	r3, [r2, #0]
    2546:	e7e7      	b.n	2518 <analog_init+0x44>
    2548:	2384      	movs	r3, #132	; 0x84
    254a:	600b      	str	r3, [r1, #0]
    254c:	6013      	str	r3, [r2, #0]
    254e:	e7f3      	b.n	2538 <analog_init+0x64>
    2550:	f500 208e 	add.w	r0, r0, #290816	; 0x47000
    2554:	490f      	ldr	r1, [pc, #60]	; (2594 <analog_init+0xc0>)
    2556:	3008      	adds	r0, #8
    2558:	2221      	movs	r2, #33	; 0x21
    255a:	2313      	movs	r3, #19
    255c:	602a      	str	r2, [r5, #0]
    255e:	6023      	str	r3, [r4, #0]
    2560:	6002      	str	r2, [r0, #0]
    2562:	600b      	str	r3, [r1, #0]
    2564:	e7d0      	b.n	2508 <analog_init+0x34>
    2566:	2239      	movs	r2, #57	; 0x39
    2568:	e7f7      	b.n	255a <analog_init+0x86>
    256a:	2385      	movs	r3, #133	; 0x85
    256c:	600b      	str	r3, [r1, #0]
    256e:	6013      	str	r3, [r2, #0]
    2570:	e7e2      	b.n	2538 <analog_init+0x64>
    2572:	2380      	movs	r3, #128	; 0x80
    2574:	600b      	str	r3, [r1, #0]
    2576:	6013      	str	r3, [r2, #0]
    2578:	e7de      	b.n	2538 <analog_init+0x64>
    257a:	bf00      	nop
    257c:	40074000 	.word	0x40074000
    2580:	40074001 	.word	0x40074001
    2584:	1fff88f8 	.word	0x1fff88f8
    2588:	4003b008 	.word	0x4003b008
    258c:	4003b00c 	.word	0x4003b00c
    2590:	400bb008 	.word	0x400bb008
    2594:	400bb00c 	.word	0x400bb00c
    2598:	1fff9631 	.word	0x1fff9631
    259c:	4003b020 	.word	0x4003b020
    25a0:	400bb020 	.word	0x400bb020
    25a4:	1fff88f9 	.word	0x1fff88f9
    25a8:	4003b024 	.word	0x4003b024
    25ac:	400bb024 	.word	0x400bb024
    25b0:	1fff9630 	.word	0x1fff9630

000025b4 <serial_available>:
    25b4:	4a05      	ldr	r2, [pc, #20]	; (25cc <serial_available+0x18>)
    25b6:	4b06      	ldr	r3, [pc, #24]	; (25d0 <serial_available+0x1c>)
    25b8:	7810      	ldrb	r0, [r2, #0]
    25ba:	781b      	ldrb	r3, [r3, #0]
    25bc:	b2c0      	uxtb	r0, r0
    25be:	b2db      	uxtb	r3, r3
    25c0:	4298      	cmp	r0, r3
    25c2:	bf38      	it	cc
    25c4:	3040      	addcc	r0, #64	; 0x40
    25c6:	1ac0      	subs	r0, r0, r3
    25c8:	4770      	bx	lr
    25ca:	bf00      	nop
    25cc:	1fff96bc 	.word	0x1fff96bc
    25d0:	1fff9639 	.word	0x1fff9639

000025d4 <uart0_status_isr>:
    25d4:	b4f0      	push	{r4, r5, r6, r7}
    25d6:	4b38      	ldr	r3, [pc, #224]	; (26b8 <uart0_status_isr+0xe4>)
    25d8:	791a      	ldrb	r2, [r3, #4]
    25da:	f012 0f30 	tst.w	r2, #48	; 0x30
    25de:	d02c      	beq.n	263a <uart0_status_isr+0x66>
    25e0:	b672      	cpsid	i
    25e2:	7d99      	ldrb	r1, [r3, #22]
    25e4:	f001 02ff 	and.w	r2, r1, #255	; 0xff
    25e8:	2900      	cmp	r1, #0
    25ea:	d03d      	beq.n	2668 <uart0_status_isr+0x94>
    25ec:	b662      	cpsie	i
    25ee:	4f33      	ldr	r7, [pc, #204]	; (26bc <uart0_status_isr+0xe8>)
    25f0:	4933      	ldr	r1, [pc, #204]	; (26c0 <uart0_status_isr+0xec>)
    25f2:	7838      	ldrb	r0, [r7, #0]
    25f4:	780d      	ldrb	r5, [r1, #0]
    25f6:	4e33      	ldr	r6, [pc, #204]	; (26c4 <uart0_status_isr+0xf0>)
    25f8:	461c      	mov	r4, r3
    25fa:	b2c0      	uxtb	r0, r0
    25fc:	b2ed      	uxtb	r5, r5
    25fe:	1c43      	adds	r3, r0, #1
    2600:	2b40      	cmp	r3, #64	; 0x40
    2602:	79e1      	ldrb	r1, [r4, #7]
    2604:	bf28      	it	cs
    2606:	2300      	movcs	r3, #0
    2608:	42ab      	cmp	r3, r5
    260a:	f102 32ff 	add.w	r2, r2, #4294967295
    260e:	b2c9      	uxtb	r1, r1
    2610:	bf1c      	itt	ne
    2612:	54f1      	strbne	r1, [r6, r3]
    2614:	4618      	movne	r0, r3
    2616:	f012 02ff 	ands.w	r2, r2, #255	; 0xff
    261a:	d1f0      	bne.n	25fe <uart0_status_isr+0x2a>
    261c:	4b2a      	ldr	r3, [pc, #168]	; (26c8 <uart0_status_isr+0xf4>)
    261e:	681b      	ldr	r3, [r3, #0]
    2620:	b2c2      	uxtb	r2, r0
    2622:	703a      	strb	r2, [r7, #0]
    2624:	b14b      	cbz	r3, 263a <uart0_status_isr+0x66>
    2626:	42a8      	cmp	r0, r5
    2628:	bf36      	itet	cc
    262a:	f1c5 0540 	rsbcc	r5, r5, #64	; 0x40
    262e:	1b40      	subcs	r0, r0, r5
    2630:	1940      	addcc	r0, r0, r5
    2632:	2827      	cmp	r0, #39	; 0x27
    2634:	bfc4      	itt	gt
    2636:	2201      	movgt	r2, #1
    2638:	701a      	strbgt	r2, [r3, #0]
    263a:	491f      	ldr	r1, [pc, #124]	; (26b8 <uart0_status_isr+0xe4>)
    263c:	78ca      	ldrb	r2, [r1, #3]
    263e:	b2d2      	uxtb	r2, r2
    2640:	0615      	lsls	r5, r2, #24
    2642:	d416      	bmi.n	2672 <uart0_status_isr+0x9e>
    2644:	0652      	lsls	r2, r2, #25
    2646:	d50d      	bpl.n	2664 <uart0_status_isr+0x90>
    2648:	4b1b      	ldr	r3, [pc, #108]	; (26b8 <uart0_status_isr+0xe4>)
    264a:	791b      	ldrb	r3, [r3, #4]
    264c:	065b      	lsls	r3, r3, #25
    264e:	d509      	bpl.n	2664 <uart0_status_isr+0x90>
    2650:	4b1e      	ldr	r3, [pc, #120]	; (26cc <uart0_status_isr+0xf8>)
    2652:	491f      	ldr	r1, [pc, #124]	; (26d0 <uart0_status_isr+0xfc>)
    2654:	681b      	ldr	r3, [r3, #0]
    2656:	2200      	movs	r2, #0
    2658:	700a      	strb	r2, [r1, #0]
    265a:	b103      	cbz	r3, 265e <uart0_status_isr+0x8a>
    265c:	701a      	strb	r2, [r3, #0]
    265e:	4b16      	ldr	r3, [pc, #88]	; (26b8 <uart0_status_isr+0xe4>)
    2660:	223c      	movs	r2, #60	; 0x3c
    2662:	70da      	strb	r2, [r3, #3]
    2664:	bcf0      	pop	{r4, r5, r6, r7}
    2666:	4770      	bx	lr
    2668:	2240      	movs	r2, #64	; 0x40
    266a:	79d9      	ldrb	r1, [r3, #7]
    266c:	745a      	strb	r2, [r3, #17]
    266e:	b662      	cpsie	i
    2670:	e7e3      	b.n	263a <uart0_status_isr+0x66>
    2672:	790b      	ldrb	r3, [r1, #4]
    2674:	061c      	lsls	r4, r3, #24
    2676:	d5e5      	bpl.n	2644 <uart0_status_isr+0x70>
    2678:	4b16      	ldr	r3, [pc, #88]	; (26d4 <uart0_status_isr+0x100>)
    267a:	4e17      	ldr	r6, [pc, #92]	; (26d8 <uart0_status_isr+0x104>)
    267c:	781c      	ldrb	r4, [r3, #0]
    267e:	7833      	ldrb	r3, [r6, #0]
    2680:	b2e4      	uxtb	r4, r4
    2682:	b2db      	uxtb	r3, r3
    2684:	429c      	cmp	r4, r3
    2686:	d00e      	beq.n	26a6 <uart0_status_isr+0xd2>
    2688:	4d14      	ldr	r5, [pc, #80]	; (26dc <uart0_status_isr+0x108>)
    268a:	e001      	b.n	2690 <uart0_status_isr+0xbc>
    268c:	42a3      	cmp	r3, r4
    268e:	d00a      	beq.n	26a6 <uart0_status_isr+0xd2>
    2690:	3301      	adds	r3, #1
    2692:	2b40      	cmp	r3, #64	; 0x40
    2694:	bf28      	it	cs
    2696:	2300      	movcs	r3, #0
    2698:	7908      	ldrb	r0, [r1, #4]
    269a:	5ce8      	ldrb	r0, [r5, r3]
    269c:	b2c0      	uxtb	r0, r0
    269e:	71c8      	strb	r0, [r1, #7]
    26a0:	7d08      	ldrb	r0, [r1, #20]
    26a2:	2807      	cmp	r0, #7
    26a4:	d9f2      	bls.n	268c <uart0_status_isr+0xb8>
    26a6:	b2db      	uxtb	r3, r3
    26a8:	4903      	ldr	r1, [pc, #12]	; (26b8 <uart0_status_isr+0xe4>)
    26aa:	7033      	strb	r3, [r6, #0]
    26ac:	790b      	ldrb	r3, [r1, #4]
    26ae:	0618      	lsls	r0, r3, #24
    26b0:	bf44      	itt	mi
    26b2:	237c      	movmi	r3, #124	; 0x7c
    26b4:	70cb      	strbmi	r3, [r1, #3]
    26b6:	e7c5      	b.n	2644 <uart0_status_isr+0x70>
    26b8:	4006a000 	.word	0x4006a000
    26bc:	1fff96bc 	.word	0x1fff96bc
    26c0:	1fff9639 	.word	0x1fff9639
    26c4:	1fff967c 	.word	0x1fff967c
    26c8:	1fff9634 	.word	0x1fff9634
    26cc:	1fff96c0 	.word	0x1fff96c0
    26d0:	1fff9638 	.word	0x1fff9638
    26d4:	1fff96c4 	.word	0x1fff96c4
    26d8:	1fff96bd 	.word	0x1fff96bd
    26dc:	1fff963c 	.word	0x1fff963c

000026e0 <serial2_available>:
    26e0:	4a05      	ldr	r2, [pc, #20]	; (26f8 <serial2_available+0x18>)
    26e2:	4b06      	ldr	r3, [pc, #24]	; (26fc <serial2_available+0x1c>)
    26e4:	7810      	ldrb	r0, [r2, #0]
    26e6:	781b      	ldrb	r3, [r3, #0]
    26e8:	b2c0      	uxtb	r0, r0
    26ea:	b2db      	uxtb	r3, r3
    26ec:	4298      	cmp	r0, r3
    26ee:	bf38      	it	cc
    26f0:	3040      	addcc	r0, #64	; 0x40
    26f2:	1ac0      	subs	r0, r0, r3
    26f4:	4770      	bx	lr
    26f6:	bf00      	nop
    26f8:	1fff9738 	.word	0x1fff9738
    26fc:	1fff96cd 	.word	0x1fff96cd

00002700 <uart1_status_isr>:
    2700:	b4f0      	push	{r4, r5, r6, r7}
    2702:	4b38      	ldr	r3, [pc, #224]	; (27e4 <uart1_status_isr+0xe4>)
    2704:	791a      	ldrb	r2, [r3, #4]
    2706:	f012 0f30 	tst.w	r2, #48	; 0x30
    270a:	d02c      	beq.n	2766 <uart1_status_isr+0x66>
    270c:	b672      	cpsid	i
    270e:	7d99      	ldrb	r1, [r3, #22]
    2710:	f001 02ff 	and.w	r2, r1, #255	; 0xff
    2714:	2900      	cmp	r1, #0
    2716:	d03d      	beq.n	2794 <uart1_status_isr+0x94>
    2718:	b662      	cpsie	i
    271a:	4f33      	ldr	r7, [pc, #204]	; (27e8 <uart1_status_isr+0xe8>)
    271c:	4933      	ldr	r1, [pc, #204]	; (27ec <uart1_status_isr+0xec>)
    271e:	7838      	ldrb	r0, [r7, #0]
    2720:	780d      	ldrb	r5, [r1, #0]
    2722:	4e33      	ldr	r6, [pc, #204]	; (27f0 <uart1_status_isr+0xf0>)
    2724:	461c      	mov	r4, r3
    2726:	b2c0      	uxtb	r0, r0
    2728:	b2ed      	uxtb	r5, r5
    272a:	1c43      	adds	r3, r0, #1
    272c:	2b40      	cmp	r3, #64	; 0x40
    272e:	79e1      	ldrb	r1, [r4, #7]
    2730:	bf28      	it	cs
    2732:	2300      	movcs	r3, #0
    2734:	42ab      	cmp	r3, r5
    2736:	f102 32ff 	add.w	r2, r2, #4294967295
    273a:	b2c9      	uxtb	r1, r1
    273c:	bf1c      	itt	ne
    273e:	54f1      	strbne	r1, [r6, r3]
    2740:	4618      	movne	r0, r3
    2742:	f012 02ff 	ands.w	r2, r2, #255	; 0xff
    2746:	d1f0      	bne.n	272a <uart1_status_isr+0x2a>
    2748:	4b2a      	ldr	r3, [pc, #168]	; (27f4 <uart1_status_isr+0xf4>)
    274a:	681b      	ldr	r3, [r3, #0]
    274c:	b2c2      	uxtb	r2, r0
    274e:	703a      	strb	r2, [r7, #0]
    2750:	b14b      	cbz	r3, 2766 <uart1_status_isr+0x66>
    2752:	42a8      	cmp	r0, r5
    2754:	bf36      	itet	cc
    2756:	f1c5 0540 	rsbcc	r5, r5, #64	; 0x40
    275a:	1b40      	subcs	r0, r0, r5
    275c:	1940      	addcc	r0, r0, r5
    275e:	2827      	cmp	r0, #39	; 0x27
    2760:	bfc4      	itt	gt
    2762:	2201      	movgt	r2, #1
    2764:	701a      	strbgt	r2, [r3, #0]
    2766:	491f      	ldr	r1, [pc, #124]	; (27e4 <uart1_status_isr+0xe4>)
    2768:	78ca      	ldrb	r2, [r1, #3]
    276a:	b2d2      	uxtb	r2, r2
    276c:	0615      	lsls	r5, r2, #24
    276e:	d416      	bmi.n	279e <uart1_status_isr+0x9e>
    2770:	0652      	lsls	r2, r2, #25
    2772:	d50d      	bpl.n	2790 <uart1_status_isr+0x90>
    2774:	4b1b      	ldr	r3, [pc, #108]	; (27e4 <uart1_status_isr+0xe4>)
    2776:	791b      	ldrb	r3, [r3, #4]
    2778:	065b      	lsls	r3, r3, #25
    277a:	d509      	bpl.n	2790 <uart1_status_isr+0x90>
    277c:	4b1e      	ldr	r3, [pc, #120]	; (27f8 <uart1_status_isr+0xf8>)
    277e:	491f      	ldr	r1, [pc, #124]	; (27fc <uart1_status_isr+0xfc>)
    2780:	681b      	ldr	r3, [r3, #0]
    2782:	2200      	movs	r2, #0
    2784:	700a      	strb	r2, [r1, #0]
    2786:	b103      	cbz	r3, 278a <uart1_status_isr+0x8a>
    2788:	701a      	strb	r2, [r3, #0]
    278a:	4b16      	ldr	r3, [pc, #88]	; (27e4 <uart1_status_isr+0xe4>)
    278c:	223c      	movs	r2, #60	; 0x3c
    278e:	70da      	strb	r2, [r3, #3]
    2790:	bcf0      	pop	{r4, r5, r6, r7}
    2792:	4770      	bx	lr
    2794:	2240      	movs	r2, #64	; 0x40
    2796:	79d9      	ldrb	r1, [r3, #7]
    2798:	745a      	strb	r2, [r3, #17]
    279a:	b662      	cpsie	i
    279c:	e7e3      	b.n	2766 <uart1_status_isr+0x66>
    279e:	790b      	ldrb	r3, [r1, #4]
    27a0:	061c      	lsls	r4, r3, #24
    27a2:	d5e5      	bpl.n	2770 <uart1_status_isr+0x70>
    27a4:	4b16      	ldr	r3, [pc, #88]	; (2800 <uart1_status_isr+0x100>)
    27a6:	4e17      	ldr	r6, [pc, #92]	; (2804 <uart1_status_isr+0x104>)
    27a8:	781c      	ldrb	r4, [r3, #0]
    27aa:	7833      	ldrb	r3, [r6, #0]
    27ac:	b2e4      	uxtb	r4, r4
    27ae:	b2db      	uxtb	r3, r3
    27b0:	429c      	cmp	r4, r3
    27b2:	d00e      	beq.n	27d2 <uart1_status_isr+0xd2>
    27b4:	4d14      	ldr	r5, [pc, #80]	; (2808 <uart1_status_isr+0x108>)
    27b6:	e001      	b.n	27bc <uart1_status_isr+0xbc>
    27b8:	42a3      	cmp	r3, r4
    27ba:	d00a      	beq.n	27d2 <uart1_status_isr+0xd2>
    27bc:	3301      	adds	r3, #1
    27be:	2b28      	cmp	r3, #40	; 0x28
    27c0:	bf28      	it	cs
    27c2:	2300      	movcs	r3, #0
    27c4:	7908      	ldrb	r0, [r1, #4]
    27c6:	5ce8      	ldrb	r0, [r5, r3]
    27c8:	b2c0      	uxtb	r0, r0
    27ca:	71c8      	strb	r0, [r1, #7]
    27cc:	7d08      	ldrb	r0, [r1, #20]
    27ce:	2807      	cmp	r0, #7
    27d0:	d9f2      	bls.n	27b8 <uart1_status_isr+0xb8>
    27d2:	b2db      	uxtb	r3, r3
    27d4:	4903      	ldr	r1, [pc, #12]	; (27e4 <uart1_status_isr+0xe4>)
    27d6:	7033      	strb	r3, [r6, #0]
    27d8:	790b      	ldrb	r3, [r1, #4]
    27da:	0618      	lsls	r0, r3, #24
    27dc:	bf44      	itt	mi
    27de:	237c      	movmi	r3, #124	; 0x7c
    27e0:	70cb      	strbmi	r3, [r1, #3]
    27e2:	e7c5      	b.n	2770 <uart1_status_isr+0x70>
    27e4:	4006b000 	.word	0x4006b000
    27e8:	1fff9738 	.word	0x1fff9738
    27ec:	1fff96cd 	.word	0x1fff96cd
    27f0:	1fff96f8 	.word	0x1fff96f8
    27f4:	1fff96c8 	.word	0x1fff96c8
    27f8:	1fff973c 	.word	0x1fff973c
    27fc:	1fff96cc 	.word	0x1fff96cc
    2800:	1fff9740 	.word	0x1fff9740
    2804:	1fff9739 	.word	0x1fff9739
    2808:	1fff96d0 	.word	0x1fff96d0

0000280c <serial3_available>:
    280c:	4a05      	ldr	r2, [pc, #20]	; (2824 <serial3_available+0x18>)
    280e:	4b06      	ldr	r3, [pc, #24]	; (2828 <serial3_available+0x1c>)
    2810:	7810      	ldrb	r0, [r2, #0]
    2812:	781b      	ldrb	r3, [r3, #0]
    2814:	b2c0      	uxtb	r0, r0
    2816:	b2db      	uxtb	r3, r3
    2818:	4298      	cmp	r0, r3
    281a:	bf38      	it	cc
    281c:	3040      	addcc	r0, #64	; 0x40
    281e:	1ac0      	subs	r0, r0, r3
    2820:	4770      	bx	lr
    2822:	bf00      	nop
    2824:	1fff97b4 	.word	0x1fff97b4
    2828:	1fff9749 	.word	0x1fff9749

0000282c <uart2_status_isr>:
    282c:	b430      	push	{r4, r5}
    282e:	4b2b      	ldr	r3, [pc, #172]	; (28dc <uart2_status_isr+0xb0>)
    2830:	791a      	ldrb	r2, [r3, #4]
    2832:	0694      	lsls	r4, r2, #26
    2834:	d51f      	bpl.n	2876 <uart2_status_isr+0x4a>
    2836:	482a      	ldr	r0, [pc, #168]	; (28e0 <uart2_status_isr+0xb4>)
    2838:	79da      	ldrb	r2, [r3, #7]
    283a:	7803      	ldrb	r3, [r0, #0]
    283c:	4929      	ldr	r1, [pc, #164]	; (28e4 <uart2_status_isr+0xb8>)
    283e:	3301      	adds	r3, #1
    2840:	2b3f      	cmp	r3, #63	; 0x3f
    2842:	7809      	ldrb	r1, [r1, #0]
    2844:	bfc8      	it	gt
    2846:	2300      	movgt	r3, #0
    2848:	428b      	cmp	r3, r1
    284a:	b2d2      	uxtb	r2, r2
    284c:	d003      	beq.n	2856 <uart2_status_isr+0x2a>
    284e:	4c26      	ldr	r4, [pc, #152]	; (28e8 <uart2_status_isr+0xbc>)
    2850:	b2d9      	uxtb	r1, r3
    2852:	54e2      	strb	r2, [r4, r3]
    2854:	7001      	strb	r1, [r0, #0]
    2856:	4a25      	ldr	r2, [pc, #148]	; (28ec <uart2_status_isr+0xc0>)
    2858:	6811      	ldr	r1, [r2, #0]
    285a:	b161      	cbz	r1, 2876 <uart2_status_isr+0x4a>
    285c:	4a24      	ldr	r2, [pc, #144]	; (28f0 <uart2_status_isr+0xc4>)
    285e:	7812      	ldrb	r2, [r2, #0]
    2860:	b2d2      	uxtb	r2, r2
    2862:	4293      	cmp	r3, r2
    2864:	bf36      	itet	cc
    2866:	f1c2 0240 	rsbcc	r2, r2, #64	; 0x40
    286a:	1a9b      	subcs	r3, r3, r2
    286c:	189b      	addcc	r3, r3, r2
    286e:	2b27      	cmp	r3, #39	; 0x27
    2870:	bfc4      	itt	gt
    2872:	2301      	movgt	r3, #1
    2874:	700b      	strbgt	r3, [r1, #0]
    2876:	4a19      	ldr	r2, [pc, #100]	; (28dc <uart2_status_isr+0xb0>)
    2878:	78d3      	ldrb	r3, [r2, #3]
    287a:	b2db      	uxtb	r3, r3
    287c:	0618      	lsls	r0, r3, #24
    287e:	d411      	bmi.n	28a4 <uart2_status_isr+0x78>
    2880:	065a      	lsls	r2, r3, #25
    2882:	d50d      	bpl.n	28a0 <uart2_status_isr+0x74>
    2884:	4b15      	ldr	r3, [pc, #84]	; (28dc <uart2_status_isr+0xb0>)
    2886:	791b      	ldrb	r3, [r3, #4]
    2888:	065b      	lsls	r3, r3, #25
    288a:	d509      	bpl.n	28a0 <uart2_status_isr+0x74>
    288c:	4b19      	ldr	r3, [pc, #100]	; (28f4 <uart2_status_isr+0xc8>)
    288e:	491a      	ldr	r1, [pc, #104]	; (28f8 <uart2_status_isr+0xcc>)
    2890:	681b      	ldr	r3, [r3, #0]
    2892:	2200      	movs	r2, #0
    2894:	700a      	strb	r2, [r1, #0]
    2896:	b103      	cbz	r3, 289a <uart2_status_isr+0x6e>
    2898:	701a      	strb	r2, [r3, #0]
    289a:	4b10      	ldr	r3, [pc, #64]	; (28dc <uart2_status_isr+0xb0>)
    289c:	222c      	movs	r2, #44	; 0x2c
    289e:	70da      	strb	r2, [r3, #3]
    28a0:	bc30      	pop	{r4, r5}
    28a2:	4770      	bx	lr
    28a4:	7911      	ldrb	r1, [r2, #4]
    28a6:	0609      	lsls	r1, r1, #24
    28a8:	d5ea      	bpl.n	2880 <uart2_status_isr+0x54>
    28aa:	4914      	ldr	r1, [pc, #80]	; (28fc <uart2_status_isr+0xd0>)
    28ac:	4810      	ldr	r0, [pc, #64]	; (28f0 <uart2_status_isr+0xc4>)
    28ae:	780c      	ldrb	r4, [r1, #0]
    28b0:	7801      	ldrb	r1, [r0, #0]
    28b2:	b2c9      	uxtb	r1, r1
    28b4:	428c      	cmp	r4, r1
    28b6:	d00d      	beq.n	28d4 <uart2_status_isr+0xa8>
    28b8:	1c4a      	adds	r2, r1, #1
    28ba:	2a27      	cmp	r2, #39	; 0x27
    28bc:	bf84      	itt	hi
    28be:	2100      	movhi	r1, #0
    28c0:	460a      	movhi	r2, r1
    28c2:	4d0f      	ldr	r5, [pc, #60]	; (2900 <uart2_status_isr+0xd4>)
    28c4:	4c05      	ldr	r4, [pc, #20]	; (28dc <uart2_status_isr+0xb0>)
    28c6:	bf98      	it	ls
    28c8:	b2d1      	uxtbls	r1, r2
    28ca:	5caa      	ldrb	r2, [r5, r2]
    28cc:	b2d2      	uxtb	r2, r2
    28ce:	71e2      	strb	r2, [r4, #7]
    28d0:	7001      	strb	r1, [r0, #0]
    28d2:	e7d5      	b.n	2880 <uart2_status_isr+0x54>
    28d4:	216c      	movs	r1, #108	; 0x6c
    28d6:	70d1      	strb	r1, [r2, #3]
    28d8:	e7d2      	b.n	2880 <uart2_status_isr+0x54>
    28da:	bf00      	nop
    28dc:	4006c000 	.word	0x4006c000
    28e0:	1fff97b4 	.word	0x1fff97b4
    28e4:	1fff9749 	.word	0x1fff9749
    28e8:	1fff9774 	.word	0x1fff9774
    28ec:	1fff9744 	.word	0x1fff9744
    28f0:	1fff97b5 	.word	0x1fff97b5
    28f4:	1fff97b8 	.word	0x1fff97b8
    28f8:	1fff9748 	.word	0x1fff9748
    28fc:	1fff97bc 	.word	0x1fff97bc
    2900:	1fff974c 	.word	0x1fff974c

00002904 <usb_init_serialnumber>:
    2904:	b570      	push	{r4, r5, r6, lr}
    2906:	b084      	sub	sp, #16
    2908:	b672      	cpsid	i
    290a:	4b30      	ldr	r3, [pc, #192]	; (29cc <usb_init_serialnumber+0xc8>)
    290c:	4d30      	ldr	r5, [pc, #192]	; (29d0 <usb_init_serialnumber+0xcc>)
    290e:	4831      	ldr	r0, [pc, #196]	; (29d4 <usb_init_serialnumber+0xd0>)
    2910:	2270      	movs	r2, #112	; 0x70
    2912:	2641      	movs	r6, #65	; 0x41
    2914:	240f      	movs	r4, #15
    2916:	2180      	movs	r1, #128	; 0x80
    2918:	701a      	strb	r2, [r3, #0]
    291a:	702e      	strb	r6, [r5, #0]
    291c:	461a      	mov	r2, r3
    291e:	7004      	strb	r4, [r0, #0]
    2920:	7019      	strb	r1, [r3, #0]
    2922:	7813      	ldrb	r3, [r2, #0]
    2924:	061b      	lsls	r3, r3, #24
    2926:	d5fc      	bpl.n	2922 <usb_init_serialnumber+0x1e>
    2928:	4b2b      	ldr	r3, [pc, #172]	; (29d8 <usb_init_serialnumber+0xd4>)
    292a:	6818      	ldr	r0, [r3, #0]
    292c:	b662      	cpsie	i
    292e:	4b2b      	ldr	r3, [pc, #172]	; (29dc <usb_init_serialnumber+0xd8>)
    2930:	4298      	cmp	r0, r3
    2932:	bf98      	it	ls
    2934:	eb00 0080 	addls.w	r0, r0, r0, lsl #2
    2938:	f04f 020a 	mov.w	r2, #10
    293c:	bf98      	it	ls
    293e:	0040      	lslls	r0, r0, #1
    2940:	a901      	add	r1, sp, #4
    2942:	f7fe f917 	bl	b74 <ultoa>
    2946:	f89d 2004 	ldrb.w	r2, [sp, #4]
    294a:	4b25      	ldr	r3, [pc, #148]	; (29e0 <usb_init_serialnumber+0xdc>)
    294c:	b352      	cbz	r2, 29a4 <usb_init_serialnumber+0xa0>
    294e:	f89d 1005 	ldrb.w	r1, [sp, #5]
    2952:	805a      	strh	r2, [r3, #2]
    2954:	b361      	cbz	r1, 29b0 <usb_init_serialnumber+0xac>
    2956:	f89d 2006 	ldrb.w	r2, [sp, #6]
    295a:	8099      	strh	r1, [r3, #4]
    295c:	b352      	cbz	r2, 29b4 <usb_init_serialnumber+0xb0>
    295e:	f89d 1007 	ldrb.w	r1, [sp, #7]
    2962:	80da      	strh	r2, [r3, #6]
    2964:	b341      	cbz	r1, 29b8 <usb_init_serialnumber+0xb4>
    2966:	f89d 2008 	ldrb.w	r2, [sp, #8]
    296a:	8119      	strh	r1, [r3, #8]
    296c:	b332      	cbz	r2, 29bc <usb_init_serialnumber+0xb8>
    296e:	f89d 1009 	ldrb.w	r1, [sp, #9]
    2972:	815a      	strh	r2, [r3, #10]
    2974:	b321      	cbz	r1, 29c0 <usb_init_serialnumber+0xbc>
    2976:	f89d 200a 	ldrb.w	r2, [sp, #10]
    297a:	8199      	strh	r1, [r3, #12]
    297c:	b312      	cbz	r2, 29c4 <usb_init_serialnumber+0xc0>
    297e:	f89d 100b 	ldrb.w	r1, [sp, #11]
    2982:	81da      	strh	r2, [r3, #14]
    2984:	b301      	cbz	r1, 29c8 <usb_init_serialnumber+0xc4>
    2986:	f89d 200c 	ldrb.w	r2, [sp, #12]
    298a:	8219      	strh	r1, [r3, #16]
    298c:	b14a      	cbz	r2, 29a2 <usb_init_serialnumber+0x9e>
    298e:	f89d 100d 	ldrb.w	r1, [sp, #13]
    2992:	825a      	strh	r2, [r3, #18]
    2994:	2209      	movs	r2, #9
    2996:	b129      	cbz	r1, 29a4 <usb_init_serialnumber+0xa0>
    2998:	2216      	movs	r2, #22
    299a:	8299      	strh	r1, [r3, #20]
    299c:	701a      	strb	r2, [r3, #0]
    299e:	b004      	add	sp, #16
    29a0:	bd70      	pop	{r4, r5, r6, pc}
    29a2:	2208      	movs	r2, #8
    29a4:	3201      	adds	r2, #1
    29a6:	0052      	lsls	r2, r2, #1
    29a8:	b2d2      	uxtb	r2, r2
    29aa:	701a      	strb	r2, [r3, #0]
    29ac:	b004      	add	sp, #16
    29ae:	bd70      	pop	{r4, r5, r6, pc}
    29b0:	2201      	movs	r2, #1
    29b2:	e7f7      	b.n	29a4 <usb_init_serialnumber+0xa0>
    29b4:	2202      	movs	r2, #2
    29b6:	e7f5      	b.n	29a4 <usb_init_serialnumber+0xa0>
    29b8:	2203      	movs	r2, #3
    29ba:	e7f3      	b.n	29a4 <usb_init_serialnumber+0xa0>
    29bc:	2204      	movs	r2, #4
    29be:	e7f1      	b.n	29a4 <usb_init_serialnumber+0xa0>
    29c0:	2205      	movs	r2, #5
    29c2:	e7ef      	b.n	29a4 <usb_init_serialnumber+0xa0>
    29c4:	2206      	movs	r2, #6
    29c6:	e7ed      	b.n	29a4 <usb_init_serialnumber+0xa0>
    29c8:	2207      	movs	r2, #7
    29ca:	e7eb      	b.n	29a4 <usb_init_serialnumber+0xa0>
    29cc:	40020000 	.word	0x40020000
    29d0:	40020007 	.word	0x40020007
    29d4:	40020006 	.word	0x40020006
    29d8:	40020008 	.word	0x40020008
    29dc:	0098967f 	.word	0x0098967f
    29e0:	1fff8988 	.word	0x1fff8988

000029e4 <__aeabi_atexit>:
    29e4:	460b      	mov	r3, r1
    29e6:	4601      	mov	r1, r0
    29e8:	4618      	mov	r0, r3
    29ea:	f000 ba5f 	b.w	2eac <__cxa_atexit>
    29ee:	bf00      	nop

000029f0 <__aeabi_frsub>:
    29f0:	f080 4000 	eor.w	r0, r0, #2147483648	; 0x80000000
    29f4:	e002      	b.n	29fc <__addsf3>
    29f6:	bf00      	nop

000029f8 <__aeabi_fsub>:
    29f8:	f081 4100 	eor.w	r1, r1, #2147483648	; 0x80000000

000029fc <__addsf3>:
    29fc:	0042      	lsls	r2, r0, #1
    29fe:	bf1f      	itttt	ne
    2a00:	ea5f 0341 	movsne.w	r3, r1, lsl #1
    2a04:	ea92 0f03 	teqne	r2, r3
    2a08:	ea7f 6c22 	mvnsne.w	ip, r2, asr #24
    2a0c:	ea7f 6c23 	mvnsne.w	ip, r3, asr #24
    2a10:	d06a      	beq.n	2ae8 <__addsf3+0xec>
    2a12:	ea4f 6212 	mov.w	r2, r2, lsr #24
    2a16:	ebd2 6313 	rsbs	r3, r2, r3, lsr #24
    2a1a:	bfc1      	itttt	gt
    2a1c:	18d2      	addgt	r2, r2, r3
    2a1e:	4041      	eorgt	r1, r0
    2a20:	4048      	eorgt	r0, r1
    2a22:	4041      	eorgt	r1, r0
    2a24:	bfb8      	it	lt
    2a26:	425b      	neglt	r3, r3
    2a28:	2b19      	cmp	r3, #25
    2a2a:	bf88      	it	hi
    2a2c:	4770      	bxhi	lr
    2a2e:	f010 4f00 	tst.w	r0, #2147483648	; 0x80000000
    2a32:	f440 0000 	orr.w	r0, r0, #8388608	; 0x800000
    2a36:	f020 407f 	bic.w	r0, r0, #4278190080	; 0xff000000
    2a3a:	bf18      	it	ne
    2a3c:	4240      	negne	r0, r0
    2a3e:	f011 4f00 	tst.w	r1, #2147483648	; 0x80000000
    2a42:	f441 0100 	orr.w	r1, r1, #8388608	; 0x800000
    2a46:	f021 417f 	bic.w	r1, r1, #4278190080	; 0xff000000
    2a4a:	bf18      	it	ne
    2a4c:	4249      	negne	r1, r1
    2a4e:	ea92 0f03 	teq	r2, r3
    2a52:	d03f      	beq.n	2ad4 <__addsf3+0xd8>
    2a54:	f1a2 0201 	sub.w	r2, r2, #1
    2a58:	fa41 fc03 	asr.w	ip, r1, r3
    2a5c:	eb10 000c 	adds.w	r0, r0, ip
    2a60:	f1c3 0320 	rsb	r3, r3, #32
    2a64:	fa01 f103 	lsl.w	r1, r1, r3
    2a68:	f000 4300 	and.w	r3, r0, #2147483648	; 0x80000000
    2a6c:	d502      	bpl.n	2a74 <__addsf3+0x78>
    2a6e:	4249      	negs	r1, r1
    2a70:	eb60 0040 	sbc.w	r0, r0, r0, lsl #1
    2a74:	f5b0 0f00 	cmp.w	r0, #8388608	; 0x800000
    2a78:	d313      	bcc.n	2aa2 <__addsf3+0xa6>
    2a7a:	f1b0 7f80 	cmp.w	r0, #16777216	; 0x1000000
    2a7e:	d306      	bcc.n	2a8e <__addsf3+0x92>
    2a80:	0840      	lsrs	r0, r0, #1
    2a82:	ea4f 0131 	mov.w	r1, r1, rrx
    2a86:	f102 0201 	add.w	r2, r2, #1
    2a8a:	2afe      	cmp	r2, #254	; 0xfe
    2a8c:	d251      	bcs.n	2b32 <__addsf3+0x136>
    2a8e:	f1b1 4f00 	cmp.w	r1, #2147483648	; 0x80000000
    2a92:	eb40 50c2 	adc.w	r0, r0, r2, lsl #23
    2a96:	bf08      	it	eq
    2a98:	f020 0001 	biceq.w	r0, r0, #1
    2a9c:	ea40 0003 	orr.w	r0, r0, r3
    2aa0:	4770      	bx	lr
    2aa2:	0049      	lsls	r1, r1, #1
    2aa4:	eb40 0000 	adc.w	r0, r0, r0
    2aa8:	f410 0f00 	tst.w	r0, #8388608	; 0x800000
    2aac:	f1a2 0201 	sub.w	r2, r2, #1
    2ab0:	d1ed      	bne.n	2a8e <__addsf3+0x92>
    2ab2:	fab0 fc80 	clz	ip, r0
    2ab6:	f1ac 0c08 	sub.w	ip, ip, #8
    2aba:	ebb2 020c 	subs.w	r2, r2, ip
    2abe:	fa00 f00c 	lsl.w	r0, r0, ip
    2ac2:	bfaa      	itet	ge
    2ac4:	eb00 50c2 	addge.w	r0, r0, r2, lsl #23
    2ac8:	4252      	neglt	r2, r2
    2aca:	4318      	orrge	r0, r3
    2acc:	bfbc      	itt	lt
    2ace:	40d0      	lsrlt	r0, r2
    2ad0:	4318      	orrlt	r0, r3
    2ad2:	4770      	bx	lr
    2ad4:	f092 0f00 	teq	r2, #0
    2ad8:	f481 0100 	eor.w	r1, r1, #8388608	; 0x800000
    2adc:	bf06      	itte	eq
    2ade:	f480 0000 	eoreq.w	r0, r0, #8388608	; 0x800000
    2ae2:	3201      	addeq	r2, #1
    2ae4:	3b01      	subne	r3, #1
    2ae6:	e7b5      	b.n	2a54 <__addsf3+0x58>
    2ae8:	ea4f 0341 	mov.w	r3, r1, lsl #1
    2aec:	ea7f 6c22 	mvns.w	ip, r2, asr #24
    2af0:	bf18      	it	ne
    2af2:	ea7f 6c23 	mvnsne.w	ip, r3, asr #24
    2af6:	d021      	beq.n	2b3c <__addsf3+0x140>
    2af8:	ea92 0f03 	teq	r2, r3
    2afc:	d004      	beq.n	2b08 <__addsf3+0x10c>
    2afe:	f092 0f00 	teq	r2, #0
    2b02:	bf08      	it	eq
    2b04:	4608      	moveq	r0, r1
    2b06:	4770      	bx	lr
    2b08:	ea90 0f01 	teq	r0, r1
    2b0c:	bf1c      	itt	ne
    2b0e:	2000      	movne	r0, #0
    2b10:	4770      	bxne	lr
    2b12:	f012 4f7f 	tst.w	r2, #4278190080	; 0xff000000
    2b16:	d104      	bne.n	2b22 <__addsf3+0x126>
    2b18:	0040      	lsls	r0, r0, #1
    2b1a:	bf28      	it	cs
    2b1c:	f040 4000 	orrcs.w	r0, r0, #2147483648	; 0x80000000
    2b20:	4770      	bx	lr
    2b22:	f112 7200 	adds.w	r2, r2, #33554432	; 0x2000000
    2b26:	bf3c      	itt	cc
    2b28:	f500 0000 	addcc.w	r0, r0, #8388608	; 0x800000
    2b2c:	4770      	bxcc	lr
    2b2e:	f000 4300 	and.w	r3, r0, #2147483648	; 0x80000000
    2b32:	f043 40fe 	orr.w	r0, r3, #2130706432	; 0x7f000000
    2b36:	f440 0000 	orr.w	r0, r0, #8388608	; 0x800000
    2b3a:	4770      	bx	lr
    2b3c:	ea7f 6222 	mvns.w	r2, r2, asr #24
    2b40:	bf16      	itet	ne
    2b42:	4608      	movne	r0, r1
    2b44:	ea7f 6323 	mvnseq.w	r3, r3, asr #24
    2b48:	4601      	movne	r1, r0
    2b4a:	0242      	lsls	r2, r0, #9
    2b4c:	bf06      	itte	eq
    2b4e:	ea5f 2341 	movseq.w	r3, r1, lsl #9
    2b52:	ea90 0f01 	teqeq	r0, r1
    2b56:	f440 0080 	orrne.w	r0, r0, #4194304	; 0x400000
    2b5a:	4770      	bx	lr

00002b5c <__aeabi_ui2f>:
    2b5c:	f04f 0300 	mov.w	r3, #0
    2b60:	e004      	b.n	2b6c <__aeabi_i2f+0x8>
    2b62:	bf00      	nop

00002b64 <__aeabi_i2f>:
    2b64:	f010 4300 	ands.w	r3, r0, #2147483648	; 0x80000000
    2b68:	bf48      	it	mi
    2b6a:	4240      	negmi	r0, r0
    2b6c:	ea5f 0c00 	movs.w	ip, r0
    2b70:	bf08      	it	eq
    2b72:	4770      	bxeq	lr
    2b74:	f043 4396 	orr.w	r3, r3, #1258291200	; 0x4b000000
    2b78:	4601      	mov	r1, r0
    2b7a:	f04f 0000 	mov.w	r0, #0
    2b7e:	e01c      	b.n	2bba <__aeabi_l2f+0x2a>

00002b80 <__aeabi_ul2f>:
    2b80:	ea50 0201 	orrs.w	r2, r0, r1
    2b84:	bf08      	it	eq
    2b86:	4770      	bxeq	lr
    2b88:	f04f 0300 	mov.w	r3, #0
    2b8c:	e00a      	b.n	2ba4 <__aeabi_l2f+0x14>
    2b8e:	bf00      	nop

00002b90 <__aeabi_l2f>:
    2b90:	ea50 0201 	orrs.w	r2, r0, r1
    2b94:	bf08      	it	eq
    2b96:	4770      	bxeq	lr
    2b98:	f011 4300 	ands.w	r3, r1, #2147483648	; 0x80000000
    2b9c:	d502      	bpl.n	2ba4 <__aeabi_l2f+0x14>
    2b9e:	4240      	negs	r0, r0
    2ba0:	eb61 0141 	sbc.w	r1, r1, r1, lsl #1
    2ba4:	ea5f 0c01 	movs.w	ip, r1
    2ba8:	bf02      	ittt	eq
    2baa:	4684      	moveq	ip, r0
    2bac:	4601      	moveq	r1, r0
    2bae:	2000      	moveq	r0, #0
    2bb0:	f043 43b6 	orr.w	r3, r3, #1526726656	; 0x5b000000
    2bb4:	bf08      	it	eq
    2bb6:	f1a3 5380 	subeq.w	r3, r3, #268435456	; 0x10000000
    2bba:	f5a3 0300 	sub.w	r3, r3, #8388608	; 0x800000
    2bbe:	fabc f28c 	clz	r2, ip
    2bc2:	3a08      	subs	r2, #8
    2bc4:	eba3 53c2 	sub.w	r3, r3, r2, lsl #23
    2bc8:	db10      	blt.n	2bec <__aeabi_l2f+0x5c>
    2bca:	fa01 fc02 	lsl.w	ip, r1, r2
    2bce:	4463      	add	r3, ip
    2bd0:	fa00 fc02 	lsl.w	ip, r0, r2
    2bd4:	f1c2 0220 	rsb	r2, r2, #32
    2bd8:	f1bc 4f00 	cmp.w	ip, #2147483648	; 0x80000000
    2bdc:	fa20 f202 	lsr.w	r2, r0, r2
    2be0:	eb43 0002 	adc.w	r0, r3, r2
    2be4:	bf08      	it	eq
    2be6:	f020 0001 	biceq.w	r0, r0, #1
    2bea:	4770      	bx	lr
    2bec:	f102 0220 	add.w	r2, r2, #32
    2bf0:	fa01 fc02 	lsl.w	ip, r1, r2
    2bf4:	f1c2 0220 	rsb	r2, r2, #32
    2bf8:	ea50 004c 	orrs.w	r0, r0, ip, lsl #1
    2bfc:	fa21 f202 	lsr.w	r2, r1, r2
    2c00:	eb43 0002 	adc.w	r0, r3, r2
    2c04:	bf08      	it	eq
    2c06:	ea20 70dc 	biceq.w	r0, r0, ip, lsr #31
    2c0a:	4770      	bx	lr

00002c0c <__aeabi_fmul>:
    2c0c:	f04f 0cff 	mov.w	ip, #255	; 0xff
    2c10:	ea1c 52d0 	ands.w	r2, ip, r0, lsr #23
    2c14:	bf1e      	ittt	ne
    2c16:	ea1c 53d1 	andsne.w	r3, ip, r1, lsr #23
    2c1a:	ea92 0f0c 	teqne	r2, ip
    2c1e:	ea93 0f0c 	teqne	r3, ip
    2c22:	d06f      	beq.n	2d04 <__aeabi_fmul+0xf8>
    2c24:	441a      	add	r2, r3
    2c26:	ea80 0c01 	eor.w	ip, r0, r1
    2c2a:	0240      	lsls	r0, r0, #9
    2c2c:	bf18      	it	ne
    2c2e:	ea5f 2141 	movsne.w	r1, r1, lsl #9
    2c32:	d01e      	beq.n	2c72 <__aeabi_fmul+0x66>
    2c34:	f04f 6300 	mov.w	r3, #134217728	; 0x8000000
    2c38:	ea43 1050 	orr.w	r0, r3, r0, lsr #5
    2c3c:	ea43 1151 	orr.w	r1, r3, r1, lsr #5
    2c40:	fba0 3101 	umull	r3, r1, r0, r1
    2c44:	f00c 4000 	and.w	r0, ip, #2147483648	; 0x80000000
    2c48:	f5b1 0f00 	cmp.w	r1, #8388608	; 0x800000
    2c4c:	bf3e      	ittt	cc
    2c4e:	0049      	lslcc	r1, r1, #1
    2c50:	ea41 71d3 	orrcc.w	r1, r1, r3, lsr #31
    2c54:	005b      	lslcc	r3, r3, #1
    2c56:	ea40 0001 	orr.w	r0, r0, r1
    2c5a:	f162 027f 	sbc.w	r2, r2, #127	; 0x7f
    2c5e:	2afd      	cmp	r2, #253	; 0xfd
    2c60:	d81d      	bhi.n	2c9e <__aeabi_fmul+0x92>
    2c62:	f1b3 4f00 	cmp.w	r3, #2147483648	; 0x80000000
    2c66:	eb40 50c2 	adc.w	r0, r0, r2, lsl #23
    2c6a:	bf08      	it	eq
    2c6c:	f020 0001 	biceq.w	r0, r0, #1
    2c70:	4770      	bx	lr
    2c72:	f090 0f00 	teq	r0, #0
    2c76:	f00c 4c00 	and.w	ip, ip, #2147483648	; 0x80000000
    2c7a:	bf08      	it	eq
    2c7c:	0249      	lsleq	r1, r1, #9
    2c7e:	ea4c 2050 	orr.w	r0, ip, r0, lsr #9
    2c82:	ea40 2051 	orr.w	r0, r0, r1, lsr #9
    2c86:	3a7f      	subs	r2, #127	; 0x7f
    2c88:	bfc2      	ittt	gt
    2c8a:	f1d2 03ff 	rsbsgt	r3, r2, #255	; 0xff
    2c8e:	ea40 50c2 	orrgt.w	r0, r0, r2, lsl #23
    2c92:	4770      	bxgt	lr
    2c94:	f440 0000 	orr.w	r0, r0, #8388608	; 0x800000
    2c98:	f04f 0300 	mov.w	r3, #0
    2c9c:	3a01      	subs	r2, #1
    2c9e:	dc5d      	bgt.n	2d5c <__aeabi_fmul+0x150>
    2ca0:	f112 0f19 	cmn.w	r2, #25
    2ca4:	bfdc      	itt	le
    2ca6:	f000 4000 	andle.w	r0, r0, #2147483648	; 0x80000000
    2caa:	4770      	bxle	lr
    2cac:	f1c2 0200 	rsb	r2, r2, #0
    2cb0:	0041      	lsls	r1, r0, #1
    2cb2:	fa21 f102 	lsr.w	r1, r1, r2
    2cb6:	f1c2 0220 	rsb	r2, r2, #32
    2cba:	fa00 fc02 	lsl.w	ip, r0, r2
    2cbe:	ea5f 0031 	movs.w	r0, r1, rrx
    2cc2:	f140 0000 	adc.w	r0, r0, #0
    2cc6:	ea53 034c 	orrs.w	r3, r3, ip, lsl #1
    2cca:	bf08      	it	eq
    2ccc:	ea20 70dc 	biceq.w	r0, r0, ip, lsr #31
    2cd0:	4770      	bx	lr
    2cd2:	f092 0f00 	teq	r2, #0
    2cd6:	f000 4c00 	and.w	ip, r0, #2147483648	; 0x80000000
    2cda:	bf02      	ittt	eq
    2cdc:	0040      	lsleq	r0, r0, #1
    2cde:	f410 0f00 	tsteq.w	r0, #8388608	; 0x800000
    2ce2:	3a01      	subeq	r2, #1
    2ce4:	d0f9      	beq.n	2cda <__aeabi_fmul+0xce>
    2ce6:	ea40 000c 	orr.w	r0, r0, ip
    2cea:	f093 0f00 	teq	r3, #0
    2cee:	f001 4c00 	and.w	ip, r1, #2147483648	; 0x80000000
    2cf2:	bf02      	ittt	eq
    2cf4:	0049      	lsleq	r1, r1, #1
    2cf6:	f411 0f00 	tsteq.w	r1, #8388608	; 0x800000
    2cfa:	3b01      	subeq	r3, #1
    2cfc:	d0f9      	beq.n	2cf2 <__aeabi_fmul+0xe6>
    2cfe:	ea41 010c 	orr.w	r1, r1, ip
    2d02:	e78f      	b.n	2c24 <__aeabi_fmul+0x18>
    2d04:	ea0c 53d1 	and.w	r3, ip, r1, lsr #23
    2d08:	ea92 0f0c 	teq	r2, ip
    2d0c:	bf18      	it	ne
    2d0e:	ea93 0f0c 	teqne	r3, ip
    2d12:	d00a      	beq.n	2d2a <__aeabi_fmul+0x11e>
    2d14:	f030 4c00 	bics.w	ip, r0, #2147483648	; 0x80000000
    2d18:	bf18      	it	ne
    2d1a:	f031 4c00 	bicsne.w	ip, r1, #2147483648	; 0x80000000
    2d1e:	d1d8      	bne.n	2cd2 <__aeabi_fmul+0xc6>
    2d20:	ea80 0001 	eor.w	r0, r0, r1
    2d24:	f000 4000 	and.w	r0, r0, #2147483648	; 0x80000000
    2d28:	4770      	bx	lr
    2d2a:	f090 0f00 	teq	r0, #0
    2d2e:	bf17      	itett	ne
    2d30:	f090 4f00 	teqne	r0, #2147483648	; 0x80000000
    2d34:	4608      	moveq	r0, r1
    2d36:	f091 0f00 	teqne	r1, #0
    2d3a:	f091 4f00 	teqne	r1, #2147483648	; 0x80000000
    2d3e:	d014      	beq.n	2d6a <__aeabi_fmul+0x15e>
    2d40:	ea92 0f0c 	teq	r2, ip
    2d44:	d101      	bne.n	2d4a <__aeabi_fmul+0x13e>
    2d46:	0242      	lsls	r2, r0, #9
    2d48:	d10f      	bne.n	2d6a <__aeabi_fmul+0x15e>
    2d4a:	ea93 0f0c 	teq	r3, ip
    2d4e:	d103      	bne.n	2d58 <__aeabi_fmul+0x14c>
    2d50:	024b      	lsls	r3, r1, #9
    2d52:	bf18      	it	ne
    2d54:	4608      	movne	r0, r1
    2d56:	d108      	bne.n	2d6a <__aeabi_fmul+0x15e>
    2d58:	ea80 0001 	eor.w	r0, r0, r1
    2d5c:	f000 4000 	and.w	r0, r0, #2147483648	; 0x80000000
    2d60:	f040 40fe 	orr.w	r0, r0, #2130706432	; 0x7f000000
    2d64:	f440 0000 	orr.w	r0, r0, #8388608	; 0x800000
    2d68:	4770      	bx	lr
    2d6a:	f040 40fe 	orr.w	r0, r0, #2130706432	; 0x7f000000
    2d6e:	f440 0040 	orr.w	r0, r0, #12582912	; 0xc00000
    2d72:	4770      	bx	lr

00002d74 <__aeabi_fdiv>:
    2d74:	f04f 0cff 	mov.w	ip, #255	; 0xff
    2d78:	ea1c 52d0 	ands.w	r2, ip, r0, lsr #23
    2d7c:	bf1e      	ittt	ne
    2d7e:	ea1c 53d1 	andsne.w	r3, ip, r1, lsr #23
    2d82:	ea92 0f0c 	teqne	r2, ip
    2d86:	ea93 0f0c 	teqne	r3, ip
    2d8a:	d069      	beq.n	2e60 <__aeabi_fdiv+0xec>
    2d8c:	eba2 0203 	sub.w	r2, r2, r3
    2d90:	ea80 0c01 	eor.w	ip, r0, r1
    2d94:	0249      	lsls	r1, r1, #9
    2d96:	ea4f 2040 	mov.w	r0, r0, lsl #9
    2d9a:	d037      	beq.n	2e0c <__aeabi_fdiv+0x98>
    2d9c:	f04f 5380 	mov.w	r3, #268435456	; 0x10000000
    2da0:	ea43 1111 	orr.w	r1, r3, r1, lsr #4
    2da4:	ea43 1310 	orr.w	r3, r3, r0, lsr #4
    2da8:	f00c 4000 	and.w	r0, ip, #2147483648	; 0x80000000
    2dac:	428b      	cmp	r3, r1
    2dae:	bf38      	it	cc
    2db0:	005b      	lslcc	r3, r3, #1
    2db2:	f142 027d 	adc.w	r2, r2, #125	; 0x7d
    2db6:	f44f 0c00 	mov.w	ip, #8388608	; 0x800000
    2dba:	428b      	cmp	r3, r1
    2dbc:	bf24      	itt	cs
    2dbe:	1a5b      	subcs	r3, r3, r1
    2dc0:	ea40 000c 	orrcs.w	r0, r0, ip
    2dc4:	ebb3 0f51 	cmp.w	r3, r1, lsr #1
    2dc8:	bf24      	itt	cs
    2dca:	eba3 0351 	subcs.w	r3, r3, r1, lsr #1
    2dce:	ea40 005c 	orrcs.w	r0, r0, ip, lsr #1
    2dd2:	ebb3 0f91 	cmp.w	r3, r1, lsr #2
    2dd6:	bf24      	itt	cs
    2dd8:	eba3 0391 	subcs.w	r3, r3, r1, lsr #2
    2ddc:	ea40 009c 	orrcs.w	r0, r0, ip, lsr #2
    2de0:	ebb3 0fd1 	cmp.w	r3, r1, lsr #3
    2de4:	bf24      	itt	cs
    2de6:	eba3 03d1 	subcs.w	r3, r3, r1, lsr #3
    2dea:	ea40 00dc 	orrcs.w	r0, r0, ip, lsr #3
    2dee:	011b      	lsls	r3, r3, #4
    2df0:	bf18      	it	ne
    2df2:	ea5f 1c1c 	movsne.w	ip, ip, lsr #4
    2df6:	d1e0      	bne.n	2dba <__aeabi_fdiv+0x46>
    2df8:	2afd      	cmp	r2, #253	; 0xfd
    2dfa:	f63f af50 	bhi.w	2c9e <__aeabi_fmul+0x92>
    2dfe:	428b      	cmp	r3, r1
    2e00:	eb40 50c2 	adc.w	r0, r0, r2, lsl #23
    2e04:	bf08      	it	eq
    2e06:	f020 0001 	biceq.w	r0, r0, #1
    2e0a:	4770      	bx	lr
    2e0c:	f00c 4c00 	and.w	ip, ip, #2147483648	; 0x80000000
    2e10:	ea4c 2050 	orr.w	r0, ip, r0, lsr #9
    2e14:	327f      	adds	r2, #127	; 0x7f
    2e16:	bfc2      	ittt	gt
    2e18:	f1d2 03ff 	rsbsgt	r3, r2, #255	; 0xff
    2e1c:	ea40 50c2 	orrgt.w	r0, r0, r2, lsl #23
    2e20:	4770      	bxgt	lr
    2e22:	f440 0000 	orr.w	r0, r0, #8388608	; 0x800000
    2e26:	f04f 0300 	mov.w	r3, #0
    2e2a:	3a01      	subs	r2, #1
    2e2c:	e737      	b.n	2c9e <__aeabi_fmul+0x92>
    2e2e:	f092 0f00 	teq	r2, #0
    2e32:	f000 4c00 	and.w	ip, r0, #2147483648	; 0x80000000
    2e36:	bf02      	ittt	eq
    2e38:	0040      	lsleq	r0, r0, #1
    2e3a:	f410 0f00 	tsteq.w	r0, #8388608	; 0x800000
    2e3e:	3a01      	subeq	r2, #1
    2e40:	d0f9      	beq.n	2e36 <__aeabi_fdiv+0xc2>
    2e42:	ea40 000c 	orr.w	r0, r0, ip
    2e46:	f093 0f00 	teq	r3, #0
    2e4a:	f001 4c00 	and.w	ip, r1, #2147483648	; 0x80000000
    2e4e:	bf02      	ittt	eq
    2e50:	0049      	lsleq	r1, r1, #1
    2e52:	f411 0f00 	tsteq.w	r1, #8388608	; 0x800000
    2e56:	3b01      	subeq	r3, #1
    2e58:	d0f9      	beq.n	2e4e <__aeabi_fdiv+0xda>
    2e5a:	ea41 010c 	orr.w	r1, r1, ip
    2e5e:	e795      	b.n	2d8c <__aeabi_fdiv+0x18>
    2e60:	ea0c 53d1 	and.w	r3, ip, r1, lsr #23
    2e64:	ea92 0f0c 	teq	r2, ip
    2e68:	d108      	bne.n	2e7c <__aeabi_fdiv+0x108>
    2e6a:	0242      	lsls	r2, r0, #9
    2e6c:	f47f af7d 	bne.w	2d6a <__aeabi_fmul+0x15e>
    2e70:	ea93 0f0c 	teq	r3, ip
    2e74:	f47f af70 	bne.w	2d58 <__aeabi_fmul+0x14c>
    2e78:	4608      	mov	r0, r1
    2e7a:	e776      	b.n	2d6a <__aeabi_fmul+0x15e>
    2e7c:	ea93 0f0c 	teq	r3, ip
    2e80:	d104      	bne.n	2e8c <__aeabi_fdiv+0x118>
    2e82:	024b      	lsls	r3, r1, #9
    2e84:	f43f af4c 	beq.w	2d20 <__aeabi_fmul+0x114>
    2e88:	4608      	mov	r0, r1
    2e8a:	e76e      	b.n	2d6a <__aeabi_fmul+0x15e>
    2e8c:	f030 4c00 	bics.w	ip, r0, #2147483648	; 0x80000000
    2e90:	bf18      	it	ne
    2e92:	f031 4c00 	bicsne.w	ip, r1, #2147483648	; 0x80000000
    2e96:	d1ca      	bne.n	2e2e <__aeabi_fdiv+0xba>
    2e98:	f030 4200 	bics.w	r2, r0, #2147483648	; 0x80000000
    2e9c:	f47f af5c 	bne.w	2d58 <__aeabi_fmul+0x14c>
    2ea0:	f031 4300 	bics.w	r3, r1, #2147483648	; 0x80000000
    2ea4:	f47f af3c 	bne.w	2d20 <__aeabi_fmul+0x114>
    2ea8:	e75f      	b.n	2d6a <__aeabi_fmul+0x15e>
    2eaa:	bf00      	nop

00002eac <__cxa_atexit>:
    2eac:	4613      	mov	r3, r2
    2eae:	460a      	mov	r2, r1
    2eb0:	4601      	mov	r1, r0
    2eb2:	2002      	movs	r0, #2
    2eb4:	f000 bb04 	b.w	34c0 <__register_exitproc>

00002eb8 <__errno>:
    2eb8:	4b01      	ldr	r3, [pc, #4]	; (2ec0 <__errno+0x8>)
    2eba:	6818      	ldr	r0, [r3, #0]
    2ebc:	4770      	bx	lr
    2ebe:	bf00      	nop
    2ec0:	1fff8dc8 	.word	0x1fff8dc8

00002ec4 <__libc_init_array>:
    2ec4:	b570      	push	{r4, r5, r6, lr}
    2ec6:	4e0f      	ldr	r6, [pc, #60]	; (2f04 <__libc_init_array+0x40>)
    2ec8:	4d0f      	ldr	r5, [pc, #60]	; (2f08 <__libc_init_array+0x44>)
    2eca:	1b76      	subs	r6, r6, r5
    2ecc:	10b6      	asrs	r6, r6, #2
    2ece:	bf18      	it	ne
    2ed0:	2400      	movne	r4, #0
    2ed2:	d005      	beq.n	2ee0 <__libc_init_array+0x1c>
    2ed4:	3401      	adds	r4, #1
    2ed6:	f855 3b04 	ldr.w	r3, [r5], #4
    2eda:	4798      	blx	r3
    2edc:	42a6      	cmp	r6, r4
    2ede:	d1f9      	bne.n	2ed4 <__libc_init_array+0x10>
    2ee0:	4e0a      	ldr	r6, [pc, #40]	; (2f0c <__libc_init_array+0x48>)
    2ee2:	4d0b      	ldr	r5, [pc, #44]	; (2f10 <__libc_init_array+0x4c>)
    2ee4:	1b76      	subs	r6, r6, r5
    2ee6:	f000 fd81 	bl	39ec <_init>
    2eea:	10b6      	asrs	r6, r6, #2
    2eec:	bf18      	it	ne
    2eee:	2400      	movne	r4, #0
    2ef0:	d006      	beq.n	2f00 <__libc_init_array+0x3c>
    2ef2:	3401      	adds	r4, #1
    2ef4:	f855 3b04 	ldr.w	r3, [r5], #4
    2ef8:	4798      	blx	r3
    2efa:	42a6      	cmp	r6, r4
    2efc:	d1f9      	bne.n	2ef2 <__libc_init_array+0x2e>
    2efe:	bd70      	pop	{r4, r5, r6, pc}
    2f00:	bd70      	pop	{r4, r5, r6, pc}
    2f02:	bf00      	nop
    2f04:	000039f8 	.word	0x000039f8
    2f08:	000039f8 	.word	0x000039f8
    2f0c:	00003a04 	.word	0x00003a04
    2f10:	000039f8 	.word	0x000039f8

00002f14 <malloc>:
    2f14:	4b02      	ldr	r3, [pc, #8]	; (2f20 <malloc+0xc>)
    2f16:	4601      	mov	r1, r0
    2f18:	6818      	ldr	r0, [r3, #0]
    2f1a:	f000 b803 	b.w	2f24 <_malloc_r>
    2f1e:	bf00      	nop
    2f20:	1fff8dc8 	.word	0x1fff8dc8

00002f24 <_malloc_r>:
    2f24:	e92d 4ff0 	stmdb	sp!, {r4, r5, r6, r7, r8, r9, sl, fp, lr}
    2f28:	f101 050b 	add.w	r5, r1, #11
    2f2c:	2d16      	cmp	r5, #22
    2f2e:	b083      	sub	sp, #12
    2f30:	4606      	mov	r6, r0
    2f32:	f240 809f 	bls.w	3074 <_malloc_r+0x150>
    2f36:	f035 0507 	bics.w	r5, r5, #7
    2f3a:	f100 80bf 	bmi.w	30bc <_malloc_r+0x198>
    2f3e:	42a9      	cmp	r1, r5
    2f40:	f200 80bc 	bhi.w	30bc <_malloc_r+0x198>
    2f44:	f000 faa6 	bl	3494 <__malloc_lock>
    2f48:	f5b5 7ffc 	cmp.w	r5, #504	; 0x1f8
    2f4c:	f0c0 829c 	bcc.w	3488 <_malloc_r+0x564>
    2f50:	0a6b      	lsrs	r3, r5, #9
    2f52:	f000 80ba 	beq.w	30ca <_malloc_r+0x1a6>
    2f56:	2b04      	cmp	r3, #4
    2f58:	f200 8183 	bhi.w	3262 <_malloc_r+0x33e>
    2f5c:	09a8      	lsrs	r0, r5, #6
    2f5e:	f100 0e39 	add.w	lr, r0, #57	; 0x39
    2f62:	ea4f 034e 	mov.w	r3, lr, lsl #1
    2f66:	3038      	adds	r0, #56	; 0x38
    2f68:	4fc4      	ldr	r7, [pc, #784]	; (327c <_malloc_r+0x358>)
    2f6a:	eb07 0383 	add.w	r3, r7, r3, lsl #2
    2f6e:	f1a3 0108 	sub.w	r1, r3, #8
    2f72:	685c      	ldr	r4, [r3, #4]
    2f74:	42a1      	cmp	r1, r4
    2f76:	d107      	bne.n	2f88 <_malloc_r+0x64>
    2f78:	e0ac      	b.n	30d4 <_malloc_r+0x1b0>
    2f7a:	2a00      	cmp	r2, #0
    2f7c:	f280 80ac 	bge.w	30d8 <_malloc_r+0x1b4>
    2f80:	68e4      	ldr	r4, [r4, #12]
    2f82:	42a1      	cmp	r1, r4
    2f84:	f000 80a6 	beq.w	30d4 <_malloc_r+0x1b0>
    2f88:	6863      	ldr	r3, [r4, #4]
    2f8a:	f023 0303 	bic.w	r3, r3, #3
    2f8e:	1b5a      	subs	r2, r3, r5
    2f90:	2a0f      	cmp	r2, #15
    2f92:	ddf2      	ble.n	2f7a <_malloc_r+0x56>
    2f94:	49b9      	ldr	r1, [pc, #740]	; (327c <_malloc_r+0x358>)
    2f96:	693c      	ldr	r4, [r7, #16]
    2f98:	f101 0e08 	add.w	lr, r1, #8
    2f9c:	4574      	cmp	r4, lr
    2f9e:	f000 81b3 	beq.w	3308 <_malloc_r+0x3e4>
    2fa2:	6863      	ldr	r3, [r4, #4]
    2fa4:	f023 0303 	bic.w	r3, r3, #3
    2fa8:	1b5a      	subs	r2, r3, r5
    2faa:	2a0f      	cmp	r2, #15
    2fac:	f300 8199 	bgt.w	32e2 <_malloc_r+0x3be>
    2fb0:	2a00      	cmp	r2, #0
    2fb2:	f8c1 e014 	str.w	lr, [r1, #20]
    2fb6:	f8c1 e010 	str.w	lr, [r1, #16]
    2fba:	f280 809e 	bge.w	30fa <_malloc_r+0x1d6>
    2fbe:	f5b3 7f00 	cmp.w	r3, #512	; 0x200
    2fc2:	f080 8167 	bcs.w	3294 <_malloc_r+0x370>
    2fc6:	08db      	lsrs	r3, r3, #3
    2fc8:	f103 0c01 	add.w	ip, r3, #1
    2fcc:	2201      	movs	r2, #1
    2fce:	109b      	asrs	r3, r3, #2
    2fd0:	fa02 f303 	lsl.w	r3, r2, r3
    2fd4:	684a      	ldr	r2, [r1, #4]
    2fd6:	f851 803c 	ldr.w	r8, [r1, ip, lsl #3]
    2fda:	f8c4 8008 	str.w	r8, [r4, #8]
    2fde:	eb01 09cc 	add.w	r9, r1, ip, lsl #3
    2fe2:	431a      	orrs	r2, r3
    2fe4:	f1a9 0308 	sub.w	r3, r9, #8
    2fe8:	60e3      	str	r3, [r4, #12]
    2fea:	604a      	str	r2, [r1, #4]
    2fec:	f841 403c 	str.w	r4, [r1, ip, lsl #3]
    2ff0:	f8c8 400c 	str.w	r4, [r8, #12]
    2ff4:	1083      	asrs	r3, r0, #2
    2ff6:	2401      	movs	r4, #1
    2ff8:	409c      	lsls	r4, r3
    2ffa:	4294      	cmp	r4, r2
    2ffc:	f200 808a 	bhi.w	3114 <_malloc_r+0x1f0>
    3000:	4214      	tst	r4, r2
    3002:	d106      	bne.n	3012 <_malloc_r+0xee>
    3004:	f020 0003 	bic.w	r0, r0, #3
    3008:	0064      	lsls	r4, r4, #1
    300a:	4214      	tst	r4, r2
    300c:	f100 0004 	add.w	r0, r0, #4
    3010:	d0fa      	beq.n	3008 <_malloc_r+0xe4>
    3012:	eb07 09c0 	add.w	r9, r7, r0, lsl #3
    3016:	46cc      	mov	ip, r9
    3018:	4680      	mov	r8, r0
    301a:	f8dc 100c 	ldr.w	r1, [ip, #12]
    301e:	458c      	cmp	ip, r1
    3020:	d107      	bne.n	3032 <_malloc_r+0x10e>
    3022:	e173      	b.n	330c <_malloc_r+0x3e8>
    3024:	2a00      	cmp	r2, #0
    3026:	f280 8181 	bge.w	332c <_malloc_r+0x408>
    302a:	68c9      	ldr	r1, [r1, #12]
    302c:	458c      	cmp	ip, r1
    302e:	f000 816d 	beq.w	330c <_malloc_r+0x3e8>
    3032:	684b      	ldr	r3, [r1, #4]
    3034:	f023 0303 	bic.w	r3, r3, #3
    3038:	1b5a      	subs	r2, r3, r5
    303a:	2a0f      	cmp	r2, #15
    303c:	ddf2      	ble.n	3024 <_malloc_r+0x100>
    303e:	460c      	mov	r4, r1
    3040:	f8d1 c00c 	ldr.w	ip, [r1, #12]
    3044:	f854 8f08 	ldr.w	r8, [r4, #8]!
    3048:	194b      	adds	r3, r1, r5
    304a:	f045 0501 	orr.w	r5, r5, #1
    304e:	604d      	str	r5, [r1, #4]
    3050:	f042 0101 	orr.w	r1, r2, #1
    3054:	f8c8 c00c 	str.w	ip, [r8, #12]
    3058:	4630      	mov	r0, r6
    305a:	f8cc 8008 	str.w	r8, [ip, #8]
    305e:	617b      	str	r3, [r7, #20]
    3060:	613b      	str	r3, [r7, #16]
    3062:	f8c3 e00c 	str.w	lr, [r3, #12]
    3066:	f8c3 e008 	str.w	lr, [r3, #8]
    306a:	6059      	str	r1, [r3, #4]
    306c:	509a      	str	r2, [r3, r2]
    306e:	f000 fa13 	bl	3498 <__malloc_unlock>
    3072:	e01f      	b.n	30b4 <_malloc_r+0x190>
    3074:	2910      	cmp	r1, #16
    3076:	d821      	bhi.n	30bc <_malloc_r+0x198>
    3078:	f000 fa0c 	bl	3494 <__malloc_lock>
    307c:	2510      	movs	r5, #16
    307e:	2306      	movs	r3, #6
    3080:	2002      	movs	r0, #2
    3082:	4f7e      	ldr	r7, [pc, #504]	; (327c <_malloc_r+0x358>)
    3084:	eb07 0383 	add.w	r3, r7, r3, lsl #2
    3088:	f1a3 0208 	sub.w	r2, r3, #8
    308c:	685c      	ldr	r4, [r3, #4]
    308e:	4294      	cmp	r4, r2
    3090:	f000 8145 	beq.w	331e <_malloc_r+0x3fa>
    3094:	6863      	ldr	r3, [r4, #4]
    3096:	68e1      	ldr	r1, [r4, #12]
    3098:	68a5      	ldr	r5, [r4, #8]
    309a:	f023 0303 	bic.w	r3, r3, #3
    309e:	4423      	add	r3, r4
    30a0:	4630      	mov	r0, r6
    30a2:	685a      	ldr	r2, [r3, #4]
    30a4:	60e9      	str	r1, [r5, #12]
    30a6:	f042 0201 	orr.w	r2, r2, #1
    30aa:	608d      	str	r5, [r1, #8]
    30ac:	605a      	str	r2, [r3, #4]
    30ae:	f000 f9f3 	bl	3498 <__malloc_unlock>
    30b2:	3408      	adds	r4, #8
    30b4:	4620      	mov	r0, r4
    30b6:	b003      	add	sp, #12
    30b8:	e8bd 8ff0 	ldmia.w	sp!, {r4, r5, r6, r7, r8, r9, sl, fp, pc}
    30bc:	2400      	movs	r4, #0
    30be:	230c      	movs	r3, #12
    30c0:	4620      	mov	r0, r4
    30c2:	6033      	str	r3, [r6, #0]
    30c4:	b003      	add	sp, #12
    30c6:	e8bd 8ff0 	ldmia.w	sp!, {r4, r5, r6, r7, r8, r9, sl, fp, pc}
    30ca:	2380      	movs	r3, #128	; 0x80
    30cc:	f04f 0e40 	mov.w	lr, #64	; 0x40
    30d0:	203f      	movs	r0, #63	; 0x3f
    30d2:	e749      	b.n	2f68 <_malloc_r+0x44>
    30d4:	4670      	mov	r0, lr
    30d6:	e75d      	b.n	2f94 <_malloc_r+0x70>
    30d8:	4423      	add	r3, r4
    30da:	68e1      	ldr	r1, [r4, #12]
    30dc:	685a      	ldr	r2, [r3, #4]
    30de:	68a5      	ldr	r5, [r4, #8]
    30e0:	f042 0201 	orr.w	r2, r2, #1
    30e4:	60e9      	str	r1, [r5, #12]
    30e6:	4630      	mov	r0, r6
    30e8:	608d      	str	r5, [r1, #8]
    30ea:	605a      	str	r2, [r3, #4]
    30ec:	f000 f9d4 	bl	3498 <__malloc_unlock>
    30f0:	3408      	adds	r4, #8
    30f2:	4620      	mov	r0, r4
    30f4:	b003      	add	sp, #12
    30f6:	e8bd 8ff0 	ldmia.w	sp!, {r4, r5, r6, r7, r8, r9, sl, fp, pc}
    30fa:	4423      	add	r3, r4
    30fc:	4630      	mov	r0, r6
    30fe:	685a      	ldr	r2, [r3, #4]
    3100:	f042 0201 	orr.w	r2, r2, #1
    3104:	605a      	str	r2, [r3, #4]
    3106:	f000 f9c7 	bl	3498 <__malloc_unlock>
    310a:	3408      	adds	r4, #8
    310c:	4620      	mov	r0, r4
    310e:	b003      	add	sp, #12
    3110:	e8bd 8ff0 	ldmia.w	sp!, {r4, r5, r6, r7, r8, r9, sl, fp, pc}
    3114:	68bc      	ldr	r4, [r7, #8]
    3116:	6863      	ldr	r3, [r4, #4]
    3118:	f023 0803 	bic.w	r8, r3, #3
    311c:	45a8      	cmp	r8, r5
    311e:	d304      	bcc.n	312a <_malloc_r+0x206>
    3120:	ebc5 0308 	rsb	r3, r5, r8
    3124:	2b0f      	cmp	r3, #15
    3126:	f300 808c 	bgt.w	3242 <_malloc_r+0x31e>
    312a:	4b55      	ldr	r3, [pc, #340]	; (3280 <_malloc_r+0x35c>)
    312c:	f8df 9160 	ldr.w	r9, [pc, #352]	; 3290 <_malloc_r+0x36c>
    3130:	681a      	ldr	r2, [r3, #0]
    3132:	f8d9 3000 	ldr.w	r3, [r9]
    3136:	3301      	adds	r3, #1
    3138:	442a      	add	r2, r5
    313a:	eb04 0a08 	add.w	sl, r4, r8
    313e:	f000 8160 	beq.w	3402 <_malloc_r+0x4de>
    3142:	f502 5280 	add.w	r2, r2, #4096	; 0x1000
    3146:	320f      	adds	r2, #15
    3148:	f422 627f 	bic.w	r2, r2, #4080	; 0xff0
    314c:	f022 020f 	bic.w	r2, r2, #15
    3150:	4611      	mov	r1, r2
    3152:	4630      	mov	r0, r6
    3154:	9201      	str	r2, [sp, #4]
    3156:	f000 f9a1 	bl	349c <_sbrk_r>
    315a:	f1b0 3fff 	cmp.w	r0, #4294967295
    315e:	4683      	mov	fp, r0
    3160:	9a01      	ldr	r2, [sp, #4]
    3162:	f000 8158 	beq.w	3416 <_malloc_r+0x4f2>
    3166:	4582      	cmp	sl, r0
    3168:	f200 80fc 	bhi.w	3364 <_malloc_r+0x440>
    316c:	4b45      	ldr	r3, [pc, #276]	; (3284 <_malloc_r+0x360>)
    316e:	6819      	ldr	r1, [r3, #0]
    3170:	45da      	cmp	sl, fp
    3172:	4411      	add	r1, r2
    3174:	6019      	str	r1, [r3, #0]
    3176:	f000 8153 	beq.w	3420 <_malloc_r+0x4fc>
    317a:	f8d9 0000 	ldr.w	r0, [r9]
    317e:	f8df e110 	ldr.w	lr, [pc, #272]	; 3290 <_malloc_r+0x36c>
    3182:	3001      	adds	r0, #1
    3184:	bf1b      	ittet	ne
    3186:	ebca 0a0b 	rsbne	sl, sl, fp
    318a:	4451      	addne	r1, sl
    318c:	f8ce b000 	streq.w	fp, [lr]
    3190:	6019      	strne	r1, [r3, #0]
    3192:	f01b 0107 	ands.w	r1, fp, #7
    3196:	f000 8117 	beq.w	33c8 <_malloc_r+0x4a4>
    319a:	f1c1 0008 	rsb	r0, r1, #8
    319e:	f5c1 5180 	rsb	r1, r1, #4096	; 0x1000
    31a2:	4483      	add	fp, r0
    31a4:	3108      	adds	r1, #8
    31a6:	445a      	add	r2, fp
    31a8:	f3c2 020b 	ubfx	r2, r2, #0, #12
    31ac:	ebc2 0901 	rsb	r9, r2, r1
    31b0:	4649      	mov	r1, r9
    31b2:	4630      	mov	r0, r6
    31b4:	9301      	str	r3, [sp, #4]
    31b6:	f000 f971 	bl	349c <_sbrk_r>
    31ba:	1c43      	adds	r3, r0, #1
    31bc:	9b01      	ldr	r3, [sp, #4]
    31be:	f000 813f 	beq.w	3440 <_malloc_r+0x51c>
    31c2:	ebcb 0200 	rsb	r2, fp, r0
    31c6:	444a      	add	r2, r9
    31c8:	f042 0201 	orr.w	r2, r2, #1
    31cc:	6819      	ldr	r1, [r3, #0]
    31ce:	f8c7 b008 	str.w	fp, [r7, #8]
    31d2:	4449      	add	r1, r9
    31d4:	42bc      	cmp	r4, r7
    31d6:	f8cb 2004 	str.w	r2, [fp, #4]
    31da:	6019      	str	r1, [r3, #0]
    31dc:	f8df 90a4 	ldr.w	r9, [pc, #164]	; 3284 <_malloc_r+0x360>
    31e0:	d016      	beq.n	3210 <_malloc_r+0x2ec>
    31e2:	f1b8 0f0f 	cmp.w	r8, #15
    31e6:	f240 80fd 	bls.w	33e4 <_malloc_r+0x4c0>
    31ea:	6862      	ldr	r2, [r4, #4]
    31ec:	f1a8 030c 	sub.w	r3, r8, #12
    31f0:	f023 0307 	bic.w	r3, r3, #7
    31f4:	18e0      	adds	r0, r4, r3
    31f6:	f002 0201 	and.w	r2, r2, #1
    31fa:	f04f 0e05 	mov.w	lr, #5
    31fe:	431a      	orrs	r2, r3
    3200:	2b0f      	cmp	r3, #15
    3202:	6062      	str	r2, [r4, #4]
    3204:	f8c0 e004 	str.w	lr, [r0, #4]
    3208:	f8c0 e008 	str.w	lr, [r0, #8]
    320c:	f200 811c 	bhi.w	3448 <_malloc_r+0x524>
    3210:	4b1d      	ldr	r3, [pc, #116]	; (3288 <_malloc_r+0x364>)
    3212:	68bc      	ldr	r4, [r7, #8]
    3214:	681a      	ldr	r2, [r3, #0]
    3216:	4291      	cmp	r1, r2
    3218:	bf88      	it	hi
    321a:	6019      	strhi	r1, [r3, #0]
    321c:	4b1b      	ldr	r3, [pc, #108]	; (328c <_malloc_r+0x368>)
    321e:	681a      	ldr	r2, [r3, #0]
    3220:	4291      	cmp	r1, r2
    3222:	6862      	ldr	r2, [r4, #4]
    3224:	bf88      	it	hi
    3226:	6019      	strhi	r1, [r3, #0]
    3228:	f022 0203 	bic.w	r2, r2, #3
    322c:	4295      	cmp	r5, r2
    322e:	eba2 0305 	sub.w	r3, r2, r5
    3232:	d801      	bhi.n	3238 <_malloc_r+0x314>
    3234:	2b0f      	cmp	r3, #15
    3236:	dc04      	bgt.n	3242 <_malloc_r+0x31e>
    3238:	4630      	mov	r0, r6
    323a:	f000 f92d 	bl	3498 <__malloc_unlock>
    323e:	2400      	movs	r4, #0
    3240:	e738      	b.n	30b4 <_malloc_r+0x190>
    3242:	1962      	adds	r2, r4, r5
    3244:	f043 0301 	orr.w	r3, r3, #1
    3248:	f045 0501 	orr.w	r5, r5, #1
    324c:	6065      	str	r5, [r4, #4]
    324e:	4630      	mov	r0, r6
    3250:	60ba      	str	r2, [r7, #8]
    3252:	6053      	str	r3, [r2, #4]
    3254:	f000 f920 	bl	3498 <__malloc_unlock>
    3258:	3408      	adds	r4, #8
    325a:	4620      	mov	r0, r4
    325c:	b003      	add	sp, #12
    325e:	e8bd 8ff0 	ldmia.w	sp!, {r4, r5, r6, r7, r8, r9, sl, fp, pc}
    3262:	2b14      	cmp	r3, #20
    3264:	d971      	bls.n	334a <_malloc_r+0x426>
    3266:	2b54      	cmp	r3, #84	; 0x54
    3268:	f200 80a4 	bhi.w	33b4 <_malloc_r+0x490>
    326c:	0b28      	lsrs	r0, r5, #12
    326e:	f100 0e6f 	add.w	lr, r0, #111	; 0x6f
    3272:	ea4f 034e 	mov.w	r3, lr, lsl #1
    3276:	306e      	adds	r0, #110	; 0x6e
    3278:	e676      	b.n	2f68 <_malloc_r+0x44>
    327a:	bf00      	nop
    327c:	1fff8dcc 	.word	0x1fff8dcc
    3280:	1fff97c8 	.word	0x1fff97c8
    3284:	1fff97cc 	.word	0x1fff97cc
    3288:	1fff97c4 	.word	0x1fff97c4
    328c:	1fff97c0 	.word	0x1fff97c0
    3290:	1fff91d8 	.word	0x1fff91d8
    3294:	0a5a      	lsrs	r2, r3, #9
    3296:	2a04      	cmp	r2, #4
    3298:	d95e      	bls.n	3358 <_malloc_r+0x434>
    329a:	2a14      	cmp	r2, #20
    329c:	f200 80b3 	bhi.w	3406 <_malloc_r+0x4e2>
    32a0:	f102 015c 	add.w	r1, r2, #92	; 0x5c
    32a4:	0049      	lsls	r1, r1, #1
    32a6:	325b      	adds	r2, #91	; 0x5b
    32a8:	eb07 0c81 	add.w	ip, r7, r1, lsl #2
    32ac:	f857 1021 	ldr.w	r1, [r7, r1, lsl #2]
    32b0:	f8df 81dc 	ldr.w	r8, [pc, #476]	; 3490 <_malloc_r+0x56c>
    32b4:	f1ac 0c08 	sub.w	ip, ip, #8
    32b8:	458c      	cmp	ip, r1
    32ba:	f000 8088 	beq.w	33ce <_malloc_r+0x4aa>
    32be:	684a      	ldr	r2, [r1, #4]
    32c0:	f022 0203 	bic.w	r2, r2, #3
    32c4:	4293      	cmp	r3, r2
    32c6:	d202      	bcs.n	32ce <_malloc_r+0x3aa>
    32c8:	6889      	ldr	r1, [r1, #8]
    32ca:	458c      	cmp	ip, r1
    32cc:	d1f7      	bne.n	32be <_malloc_r+0x39a>
    32ce:	f8d1 c00c 	ldr.w	ip, [r1, #12]
    32d2:	687a      	ldr	r2, [r7, #4]
    32d4:	f8c4 c00c 	str.w	ip, [r4, #12]
    32d8:	60a1      	str	r1, [r4, #8]
    32da:	f8cc 4008 	str.w	r4, [ip, #8]
    32de:	60cc      	str	r4, [r1, #12]
    32e0:	e688      	b.n	2ff4 <_malloc_r+0xd0>
    32e2:	1963      	adds	r3, r4, r5
    32e4:	f042 0701 	orr.w	r7, r2, #1
    32e8:	f045 0501 	orr.w	r5, r5, #1
    32ec:	6065      	str	r5, [r4, #4]
    32ee:	4630      	mov	r0, r6
    32f0:	614b      	str	r3, [r1, #20]
    32f2:	610b      	str	r3, [r1, #16]
    32f4:	f8c3 e00c 	str.w	lr, [r3, #12]
    32f8:	f8c3 e008 	str.w	lr, [r3, #8]
    32fc:	605f      	str	r7, [r3, #4]
    32fe:	509a      	str	r2, [r3, r2]
    3300:	3408      	adds	r4, #8
    3302:	f000 f8c9 	bl	3498 <__malloc_unlock>
    3306:	e6d5      	b.n	30b4 <_malloc_r+0x190>
    3308:	684a      	ldr	r2, [r1, #4]
    330a:	e673      	b.n	2ff4 <_malloc_r+0xd0>
    330c:	f108 0801 	add.w	r8, r8, #1
    3310:	f018 0f03 	tst.w	r8, #3
    3314:	f10c 0c08 	add.w	ip, ip, #8
    3318:	f47f ae7f 	bne.w	301a <_malloc_r+0xf6>
    331c:	e030      	b.n	3380 <_malloc_r+0x45c>
    331e:	68dc      	ldr	r4, [r3, #12]
    3320:	42a3      	cmp	r3, r4
    3322:	bf08      	it	eq
    3324:	3002      	addeq	r0, #2
    3326:	f43f ae35 	beq.w	2f94 <_malloc_r+0x70>
    332a:	e6b3      	b.n	3094 <_malloc_r+0x170>
    332c:	440b      	add	r3, r1
    332e:	460c      	mov	r4, r1
    3330:	685a      	ldr	r2, [r3, #4]
    3332:	68c9      	ldr	r1, [r1, #12]
    3334:	f854 5f08 	ldr.w	r5, [r4, #8]!
    3338:	f042 0201 	orr.w	r2, r2, #1
    333c:	605a      	str	r2, [r3, #4]
    333e:	4630      	mov	r0, r6
    3340:	60e9      	str	r1, [r5, #12]
    3342:	608d      	str	r5, [r1, #8]
    3344:	f000 f8a8 	bl	3498 <__malloc_unlock>
    3348:	e6b4      	b.n	30b4 <_malloc_r+0x190>
    334a:	f103 0e5c 	add.w	lr, r3, #92	; 0x5c
    334e:	f103 005b 	add.w	r0, r3, #91	; 0x5b
    3352:	ea4f 034e 	mov.w	r3, lr, lsl #1
    3356:	e607      	b.n	2f68 <_malloc_r+0x44>
    3358:	099a      	lsrs	r2, r3, #6
    335a:	f102 0139 	add.w	r1, r2, #57	; 0x39
    335e:	0049      	lsls	r1, r1, #1
    3360:	3238      	adds	r2, #56	; 0x38
    3362:	e7a1      	b.n	32a8 <_malloc_r+0x384>
    3364:	42bc      	cmp	r4, r7
    3366:	4b4a      	ldr	r3, [pc, #296]	; (3490 <_malloc_r+0x56c>)
    3368:	f43f af00 	beq.w	316c <_malloc_r+0x248>
    336c:	689c      	ldr	r4, [r3, #8]
    336e:	6862      	ldr	r2, [r4, #4]
    3370:	f022 0203 	bic.w	r2, r2, #3
    3374:	e75a      	b.n	322c <_malloc_r+0x308>
    3376:	f859 3908 	ldr.w	r3, [r9], #-8
    337a:	4599      	cmp	r9, r3
    337c:	f040 8082 	bne.w	3484 <_malloc_r+0x560>
    3380:	f010 0f03 	tst.w	r0, #3
    3384:	f100 30ff 	add.w	r0, r0, #4294967295
    3388:	d1f5      	bne.n	3376 <_malloc_r+0x452>
    338a:	687b      	ldr	r3, [r7, #4]
    338c:	ea23 0304 	bic.w	r3, r3, r4
    3390:	607b      	str	r3, [r7, #4]
    3392:	0064      	lsls	r4, r4, #1
    3394:	429c      	cmp	r4, r3
    3396:	f63f aebd 	bhi.w	3114 <_malloc_r+0x1f0>
    339a:	2c00      	cmp	r4, #0
    339c:	f43f aeba 	beq.w	3114 <_malloc_r+0x1f0>
    33a0:	421c      	tst	r4, r3
    33a2:	4640      	mov	r0, r8
    33a4:	f47f ae35 	bne.w	3012 <_malloc_r+0xee>
    33a8:	0064      	lsls	r4, r4, #1
    33aa:	421c      	tst	r4, r3
    33ac:	f100 0004 	add.w	r0, r0, #4
    33b0:	d0fa      	beq.n	33a8 <_malloc_r+0x484>
    33b2:	e62e      	b.n	3012 <_malloc_r+0xee>
    33b4:	f5b3 7faa 	cmp.w	r3, #340	; 0x154
    33b8:	d818      	bhi.n	33ec <_malloc_r+0x4c8>
    33ba:	0be8      	lsrs	r0, r5, #15
    33bc:	f100 0e78 	add.w	lr, r0, #120	; 0x78
    33c0:	ea4f 034e 	mov.w	r3, lr, lsl #1
    33c4:	3077      	adds	r0, #119	; 0x77
    33c6:	e5cf      	b.n	2f68 <_malloc_r+0x44>
    33c8:	f44f 5180 	mov.w	r1, #4096	; 0x1000
    33cc:	e6eb      	b.n	31a6 <_malloc_r+0x282>
    33ce:	2101      	movs	r1, #1
    33d0:	f8d8 3004 	ldr.w	r3, [r8, #4]
    33d4:	1092      	asrs	r2, r2, #2
    33d6:	fa01 f202 	lsl.w	r2, r1, r2
    33da:	431a      	orrs	r2, r3
    33dc:	f8c8 2004 	str.w	r2, [r8, #4]
    33e0:	4661      	mov	r1, ip
    33e2:	e777      	b.n	32d4 <_malloc_r+0x3b0>
    33e4:	2301      	movs	r3, #1
    33e6:	f8cb 3004 	str.w	r3, [fp, #4]
    33ea:	e725      	b.n	3238 <_malloc_r+0x314>
    33ec:	f240 5254 	movw	r2, #1364	; 0x554
    33f0:	4293      	cmp	r3, r2
    33f2:	d820      	bhi.n	3436 <_malloc_r+0x512>
    33f4:	0ca8      	lsrs	r0, r5, #18
    33f6:	f100 0e7d 	add.w	lr, r0, #125	; 0x7d
    33fa:	ea4f 034e 	mov.w	r3, lr, lsl #1
    33fe:	307c      	adds	r0, #124	; 0x7c
    3400:	e5b2      	b.n	2f68 <_malloc_r+0x44>
    3402:	3210      	adds	r2, #16
    3404:	e6a4      	b.n	3150 <_malloc_r+0x22c>
    3406:	2a54      	cmp	r2, #84	; 0x54
    3408:	d826      	bhi.n	3458 <_malloc_r+0x534>
    340a:	0b1a      	lsrs	r2, r3, #12
    340c:	f102 016f 	add.w	r1, r2, #111	; 0x6f
    3410:	0049      	lsls	r1, r1, #1
    3412:	326e      	adds	r2, #110	; 0x6e
    3414:	e748      	b.n	32a8 <_malloc_r+0x384>
    3416:	68bc      	ldr	r4, [r7, #8]
    3418:	6862      	ldr	r2, [r4, #4]
    341a:	f022 0203 	bic.w	r2, r2, #3
    341e:	e705      	b.n	322c <_malloc_r+0x308>
    3420:	f3ca 000b 	ubfx	r0, sl, #0, #12
    3424:	2800      	cmp	r0, #0
    3426:	f47f aea8 	bne.w	317a <_malloc_r+0x256>
    342a:	4442      	add	r2, r8
    342c:	68bb      	ldr	r3, [r7, #8]
    342e:	f042 0201 	orr.w	r2, r2, #1
    3432:	605a      	str	r2, [r3, #4]
    3434:	e6ec      	b.n	3210 <_malloc_r+0x2ec>
    3436:	23fe      	movs	r3, #254	; 0xfe
    3438:	f04f 0e7f 	mov.w	lr, #127	; 0x7f
    343c:	207e      	movs	r0, #126	; 0x7e
    343e:	e593      	b.n	2f68 <_malloc_r+0x44>
    3440:	2201      	movs	r2, #1
    3442:	f04f 0900 	mov.w	r9, #0
    3446:	e6c1      	b.n	31cc <_malloc_r+0x2a8>
    3448:	f104 0108 	add.w	r1, r4, #8
    344c:	4630      	mov	r0, r6
    344e:	f000 f8fb 	bl	3648 <_free_r>
    3452:	f8d9 1000 	ldr.w	r1, [r9]
    3456:	e6db      	b.n	3210 <_malloc_r+0x2ec>
    3458:	f5b2 7faa 	cmp.w	r2, #340	; 0x154
    345c:	d805      	bhi.n	346a <_malloc_r+0x546>
    345e:	0bda      	lsrs	r2, r3, #15
    3460:	f102 0178 	add.w	r1, r2, #120	; 0x78
    3464:	0049      	lsls	r1, r1, #1
    3466:	3277      	adds	r2, #119	; 0x77
    3468:	e71e      	b.n	32a8 <_malloc_r+0x384>
    346a:	f240 5154 	movw	r1, #1364	; 0x554
    346e:	428a      	cmp	r2, r1
    3470:	d805      	bhi.n	347e <_malloc_r+0x55a>
    3472:	0c9a      	lsrs	r2, r3, #18
    3474:	f102 017d 	add.w	r1, r2, #125	; 0x7d
    3478:	0049      	lsls	r1, r1, #1
    347a:	327c      	adds	r2, #124	; 0x7c
    347c:	e714      	b.n	32a8 <_malloc_r+0x384>
    347e:	21fe      	movs	r1, #254	; 0xfe
    3480:	227e      	movs	r2, #126	; 0x7e
    3482:	e711      	b.n	32a8 <_malloc_r+0x384>
    3484:	687b      	ldr	r3, [r7, #4]
    3486:	e784      	b.n	3392 <_malloc_r+0x46e>
    3488:	08e8      	lsrs	r0, r5, #3
    348a:	1c43      	adds	r3, r0, #1
    348c:	005b      	lsls	r3, r3, #1
    348e:	e5f8      	b.n	3082 <_malloc_r+0x15e>
    3490:	1fff8dcc 	.word	0x1fff8dcc

00003494 <__malloc_lock>:
    3494:	4770      	bx	lr
    3496:	bf00      	nop

00003498 <__malloc_unlock>:
    3498:	4770      	bx	lr
    349a:	bf00      	nop

0000349c <_sbrk_r>:
    349c:	b538      	push	{r3, r4, r5, lr}
    349e:	4c07      	ldr	r4, [pc, #28]	; (34bc <_sbrk_r+0x20>)
    34a0:	2300      	movs	r3, #0
    34a2:	4605      	mov	r5, r0
    34a4:	4608      	mov	r0, r1
    34a6:	6023      	str	r3, [r4, #0]
    34a8:	f7fd fb4e 	bl	b48 <_sbrk>
    34ac:	1c43      	adds	r3, r0, #1
    34ae:	d000      	beq.n	34b2 <_sbrk_r+0x16>
    34b0:	bd38      	pop	{r3, r4, r5, pc}
    34b2:	6823      	ldr	r3, [r4, #0]
    34b4:	2b00      	cmp	r3, #0
    34b6:	d0fb      	beq.n	34b0 <_sbrk_r+0x14>
    34b8:	602b      	str	r3, [r5, #0]
    34ba:	bd38      	pop	{r3, r4, r5, pc}
    34bc:	1fff9808 	.word	0x1fff9808

000034c0 <__register_exitproc>:
    34c0:	e92d 47f0 	stmdb	sp!, {r4, r5, r6, r7, r8, r9, sl, lr}
    34c4:	4c25      	ldr	r4, [pc, #148]	; (355c <__register_exitproc+0x9c>)
    34c6:	6825      	ldr	r5, [r4, #0]
    34c8:	f8d5 4148 	ldr.w	r4, [r5, #328]	; 0x148
    34cc:	4606      	mov	r6, r0
    34ce:	4688      	mov	r8, r1
    34d0:	4692      	mov	sl, r2
    34d2:	4699      	mov	r9, r3
    34d4:	b3c4      	cbz	r4, 3548 <__register_exitproc+0x88>
    34d6:	6860      	ldr	r0, [r4, #4]
    34d8:	281f      	cmp	r0, #31
    34da:	dc17      	bgt.n	350c <__register_exitproc+0x4c>
    34dc:	1c43      	adds	r3, r0, #1
    34de:	b176      	cbz	r6, 34fe <__register_exitproc+0x3e>
    34e0:	eb04 0580 	add.w	r5, r4, r0, lsl #2
    34e4:	2201      	movs	r2, #1
    34e6:	f8c5 a088 	str.w	sl, [r5, #136]	; 0x88
    34ea:	f8d4 1188 	ldr.w	r1, [r4, #392]	; 0x188
    34ee:	4082      	lsls	r2, r0
    34f0:	4311      	orrs	r1, r2
    34f2:	2e02      	cmp	r6, #2
    34f4:	f8c4 1188 	str.w	r1, [r4, #392]	; 0x188
    34f8:	f8c5 9108 	str.w	r9, [r5, #264]	; 0x108
    34fc:	d01e      	beq.n	353c <__register_exitproc+0x7c>
    34fe:	3002      	adds	r0, #2
    3500:	6063      	str	r3, [r4, #4]
    3502:	f844 8020 	str.w	r8, [r4, r0, lsl #2]
    3506:	2000      	movs	r0, #0
    3508:	e8bd 87f0 	ldmia.w	sp!, {r4, r5, r6, r7, r8, r9, sl, pc}
    350c:	4b14      	ldr	r3, [pc, #80]	; (3560 <__register_exitproc+0xa0>)
    350e:	b303      	cbz	r3, 3552 <__register_exitproc+0x92>
    3510:	f44f 70c8 	mov.w	r0, #400	; 0x190
    3514:	f7ff fcfe 	bl	2f14 <malloc>
    3518:	4604      	mov	r4, r0
    351a:	b1d0      	cbz	r0, 3552 <__register_exitproc+0x92>
    351c:	f8d5 3148 	ldr.w	r3, [r5, #328]	; 0x148
    3520:	2700      	movs	r7, #0
    3522:	e880 0088 	stmia.w	r0, {r3, r7}
    3526:	f8c5 4148 	str.w	r4, [r5, #328]	; 0x148
    352a:	4638      	mov	r0, r7
    352c:	2301      	movs	r3, #1
    352e:	f8c4 7188 	str.w	r7, [r4, #392]	; 0x188
    3532:	f8c4 718c 	str.w	r7, [r4, #396]	; 0x18c
    3536:	2e00      	cmp	r6, #0
    3538:	d0e1      	beq.n	34fe <__register_exitproc+0x3e>
    353a:	e7d1      	b.n	34e0 <__register_exitproc+0x20>
    353c:	f8d4 118c 	ldr.w	r1, [r4, #396]	; 0x18c
    3540:	430a      	orrs	r2, r1
    3542:	f8c4 218c 	str.w	r2, [r4, #396]	; 0x18c
    3546:	e7da      	b.n	34fe <__register_exitproc+0x3e>
    3548:	f505 74a6 	add.w	r4, r5, #332	; 0x14c
    354c:	f8c5 4148 	str.w	r4, [r5, #328]	; 0x148
    3550:	e7c1      	b.n	34d6 <__register_exitproc+0x16>
    3552:	f04f 30ff 	mov.w	r0, #4294967295
    3556:	e8bd 87f0 	ldmia.w	sp!, {r4, r5, r6, r7, r8, r9, sl, pc}
    355a:	bf00      	nop
    355c:	000039e8 	.word	0x000039e8
    3560:	00002f15 	.word	0x00002f15

00003564 <register_fini>:
    3564:	4b02      	ldr	r3, [pc, #8]	; (3570 <register_fini+0xc>)
    3566:	b113      	cbz	r3, 356e <register_fini+0xa>
    3568:	4802      	ldr	r0, [pc, #8]	; (3574 <register_fini+0x10>)
    356a:	f000 b805 	b.w	3578 <atexit>
    356e:	4770      	bx	lr
    3570:	00000000 	.word	0x00000000
    3574:	00003585 	.word	0x00003585

00003578 <atexit>:
    3578:	2300      	movs	r3, #0
    357a:	4601      	mov	r1, r0
    357c:	461a      	mov	r2, r3
    357e:	4618      	mov	r0, r3
    3580:	f7ff bf9e 	b.w	34c0 <__register_exitproc>

00003584 <__libc_fini_array>:
    3584:	b538      	push	{r3, r4, r5, lr}
    3586:	4d07      	ldr	r5, [pc, #28]	; (35a4 <__libc_fini_array+0x20>)
    3588:	4c07      	ldr	r4, [pc, #28]	; (35a8 <__libc_fini_array+0x24>)
    358a:	1b2c      	subs	r4, r5, r4
    358c:	10a4      	asrs	r4, r4, #2
    358e:	d005      	beq.n	359c <__libc_fini_array+0x18>
    3590:	3c01      	subs	r4, #1
    3592:	f855 3d04 	ldr.w	r3, [r5, #-4]!
    3596:	4798      	blx	r3
    3598:	2c00      	cmp	r4, #0
    359a:	d1f9      	bne.n	3590 <__libc_fini_array+0xc>
    359c:	e8bd 4038 	ldmia.w	sp!, {r3, r4, r5, lr}
    35a0:	f000 ba30 	b.w	3a04 <__init_array_end>
	...

000035ac <_malloc_trim_r>:
    35ac:	b5f8      	push	{r3, r4, r5, r6, r7, lr}
    35ae:	4f23      	ldr	r7, [pc, #140]	; (363c <_malloc_trim_r+0x90>)
    35b0:	460c      	mov	r4, r1
    35b2:	4606      	mov	r6, r0
    35b4:	f7ff ff6e 	bl	3494 <__malloc_lock>
    35b8:	68bb      	ldr	r3, [r7, #8]
    35ba:	685d      	ldr	r5, [r3, #4]
    35bc:	f025 0503 	bic.w	r5, r5, #3
    35c0:	1b29      	subs	r1, r5, r4
    35c2:	f601 71ef 	addw	r1, r1, #4079	; 0xfef
    35c6:	f421 617f 	bic.w	r1, r1, #4080	; 0xff0
    35ca:	f021 010f 	bic.w	r1, r1, #15
    35ce:	f5a1 5480 	sub.w	r4, r1, #4096	; 0x1000
    35d2:	f5b4 5f80 	cmp.w	r4, #4096	; 0x1000
    35d6:	db07      	blt.n	35e8 <_malloc_trim_r+0x3c>
    35d8:	2100      	movs	r1, #0
    35da:	4630      	mov	r0, r6
    35dc:	f7ff ff5e 	bl	349c <_sbrk_r>
    35e0:	68bb      	ldr	r3, [r7, #8]
    35e2:	442b      	add	r3, r5
    35e4:	4298      	cmp	r0, r3
    35e6:	d004      	beq.n	35f2 <_malloc_trim_r+0x46>
    35e8:	4630      	mov	r0, r6
    35ea:	f7ff ff55 	bl	3498 <__malloc_unlock>
    35ee:	2000      	movs	r0, #0
    35f0:	bdf8      	pop	{r3, r4, r5, r6, r7, pc}
    35f2:	4261      	negs	r1, r4
    35f4:	4630      	mov	r0, r6
    35f6:	f7ff ff51 	bl	349c <_sbrk_r>
    35fa:	3001      	adds	r0, #1
    35fc:	d00d      	beq.n	361a <_malloc_trim_r+0x6e>
    35fe:	4b10      	ldr	r3, [pc, #64]	; (3640 <_malloc_trim_r+0x94>)
    3600:	68ba      	ldr	r2, [r7, #8]
    3602:	6819      	ldr	r1, [r3, #0]
    3604:	1b2d      	subs	r5, r5, r4
    3606:	f045 0501 	orr.w	r5, r5, #1
    360a:	4630      	mov	r0, r6
    360c:	1b09      	subs	r1, r1, r4
    360e:	6055      	str	r5, [r2, #4]
    3610:	6019      	str	r1, [r3, #0]
    3612:	f7ff ff41 	bl	3498 <__malloc_unlock>
    3616:	2001      	movs	r0, #1
    3618:	bdf8      	pop	{r3, r4, r5, r6, r7, pc}
    361a:	2100      	movs	r1, #0
    361c:	4630      	mov	r0, r6
    361e:	f7ff ff3d 	bl	349c <_sbrk_r>
    3622:	68ba      	ldr	r2, [r7, #8]
    3624:	1a83      	subs	r3, r0, r2
    3626:	2b0f      	cmp	r3, #15
    3628:	ddde      	ble.n	35e8 <_malloc_trim_r+0x3c>
    362a:	4c06      	ldr	r4, [pc, #24]	; (3644 <_malloc_trim_r+0x98>)
    362c:	4904      	ldr	r1, [pc, #16]	; (3640 <_malloc_trim_r+0x94>)
    362e:	6824      	ldr	r4, [r4, #0]
    3630:	f043 0301 	orr.w	r3, r3, #1
    3634:	1b00      	subs	r0, r0, r4
    3636:	6053      	str	r3, [r2, #4]
    3638:	6008      	str	r0, [r1, #0]
    363a:	e7d5      	b.n	35e8 <_malloc_trim_r+0x3c>
    363c:	1fff8dcc 	.word	0x1fff8dcc
    3640:	1fff97cc 	.word	0x1fff97cc
    3644:	1fff91d8 	.word	0x1fff91d8

00003648 <_free_r>:
    3648:	2900      	cmp	r1, #0
    364a:	d045      	beq.n	36d8 <_free_r+0x90>
    364c:	e92d 41f0 	stmdb	sp!, {r4, r5, r6, r7, r8, lr}
    3650:	460d      	mov	r5, r1
    3652:	4680      	mov	r8, r0
    3654:	f7ff ff1e 	bl	3494 <__malloc_lock>
    3658:	f855 7c04 	ldr.w	r7, [r5, #-4]
    365c:	496a      	ldr	r1, [pc, #424]	; (3808 <_free_r+0x1c0>)
    365e:	f027 0301 	bic.w	r3, r7, #1
    3662:	f1a5 0408 	sub.w	r4, r5, #8
    3666:	18e2      	adds	r2, r4, r3
    3668:	688e      	ldr	r6, [r1, #8]
    366a:	6850      	ldr	r0, [r2, #4]
    366c:	42b2      	cmp	r2, r6
    366e:	f020 0003 	bic.w	r0, r0, #3
    3672:	d062      	beq.n	373a <_free_r+0xf2>
    3674:	07fe      	lsls	r6, r7, #31
    3676:	6050      	str	r0, [r2, #4]
    3678:	d40b      	bmi.n	3692 <_free_r+0x4a>
    367a:	f855 7c08 	ldr.w	r7, [r5, #-8]
    367e:	1be4      	subs	r4, r4, r7
    3680:	f101 0e08 	add.w	lr, r1, #8
    3684:	68a5      	ldr	r5, [r4, #8]
    3686:	4575      	cmp	r5, lr
    3688:	443b      	add	r3, r7
    368a:	d06f      	beq.n	376c <_free_r+0x124>
    368c:	68e7      	ldr	r7, [r4, #12]
    368e:	60ef      	str	r7, [r5, #12]
    3690:	60bd      	str	r5, [r7, #8]
    3692:	1815      	adds	r5, r2, r0
    3694:	686d      	ldr	r5, [r5, #4]
    3696:	07ed      	lsls	r5, r5, #31
    3698:	d542      	bpl.n	3720 <_free_r+0xd8>
    369a:	f043 0201 	orr.w	r2, r3, #1
    369e:	6062      	str	r2, [r4, #4]
    36a0:	50e3      	str	r3, [r4, r3]
    36a2:	f5b3 7f00 	cmp.w	r3, #512	; 0x200
    36a6:	d218      	bcs.n	36da <_free_r+0x92>
    36a8:	08db      	lsrs	r3, r3, #3
    36aa:	1c5a      	adds	r2, r3, #1
    36ac:	684d      	ldr	r5, [r1, #4]
    36ae:	f851 7032 	ldr.w	r7, [r1, r2, lsl #3]
    36b2:	60a7      	str	r7, [r4, #8]
    36b4:	2001      	movs	r0, #1
    36b6:	109b      	asrs	r3, r3, #2
    36b8:	fa00 f303 	lsl.w	r3, r0, r3
    36bc:	eb01 00c2 	add.w	r0, r1, r2, lsl #3
    36c0:	431d      	orrs	r5, r3
    36c2:	3808      	subs	r0, #8
    36c4:	60e0      	str	r0, [r4, #12]
    36c6:	604d      	str	r5, [r1, #4]
    36c8:	f841 4032 	str.w	r4, [r1, r2, lsl #3]
    36cc:	60fc      	str	r4, [r7, #12]
    36ce:	4640      	mov	r0, r8
    36d0:	e8bd 41f0 	ldmia.w	sp!, {r4, r5, r6, r7, r8, lr}
    36d4:	f7ff bee0 	b.w	3498 <__malloc_unlock>
    36d8:	4770      	bx	lr
    36da:	0a5a      	lsrs	r2, r3, #9
    36dc:	2a04      	cmp	r2, #4
    36de:	d853      	bhi.n	3788 <_free_r+0x140>
    36e0:	099a      	lsrs	r2, r3, #6
    36e2:	f102 0739 	add.w	r7, r2, #57	; 0x39
    36e6:	007f      	lsls	r7, r7, #1
    36e8:	f102 0538 	add.w	r5, r2, #56	; 0x38
    36ec:	eb01 0087 	add.w	r0, r1, r7, lsl #2
    36f0:	f851 2027 	ldr.w	r2, [r1, r7, lsl #2]
    36f4:	4944      	ldr	r1, [pc, #272]	; (3808 <_free_r+0x1c0>)
    36f6:	3808      	subs	r0, #8
    36f8:	4290      	cmp	r0, r2
    36fa:	d04d      	beq.n	3798 <_free_r+0x150>
    36fc:	6851      	ldr	r1, [r2, #4]
    36fe:	f021 0103 	bic.w	r1, r1, #3
    3702:	428b      	cmp	r3, r1
    3704:	d202      	bcs.n	370c <_free_r+0xc4>
    3706:	6892      	ldr	r2, [r2, #8]
    3708:	4290      	cmp	r0, r2
    370a:	d1f7      	bne.n	36fc <_free_r+0xb4>
    370c:	68d0      	ldr	r0, [r2, #12]
    370e:	60e0      	str	r0, [r4, #12]
    3710:	60a2      	str	r2, [r4, #8]
    3712:	6084      	str	r4, [r0, #8]
    3714:	60d4      	str	r4, [r2, #12]
    3716:	4640      	mov	r0, r8
    3718:	e8bd 41f0 	ldmia.w	sp!, {r4, r5, r6, r7, r8, lr}
    371c:	f7ff bebc 	b.w	3498 <__malloc_unlock>
    3720:	6895      	ldr	r5, [r2, #8]
    3722:	4f3a      	ldr	r7, [pc, #232]	; (380c <_free_r+0x1c4>)
    3724:	42bd      	cmp	r5, r7
    3726:	4403      	add	r3, r0
    3728:	d03f      	beq.n	37aa <_free_r+0x162>
    372a:	68d0      	ldr	r0, [r2, #12]
    372c:	60e8      	str	r0, [r5, #12]
    372e:	f043 0201 	orr.w	r2, r3, #1
    3732:	6085      	str	r5, [r0, #8]
    3734:	6062      	str	r2, [r4, #4]
    3736:	50e3      	str	r3, [r4, r3]
    3738:	e7b3      	b.n	36a2 <_free_r+0x5a>
    373a:	07ff      	lsls	r7, r7, #31
    373c:	4403      	add	r3, r0
    373e:	d407      	bmi.n	3750 <_free_r+0x108>
    3740:	f855 2c08 	ldr.w	r2, [r5, #-8]
    3744:	1aa4      	subs	r4, r4, r2
    3746:	4413      	add	r3, r2
    3748:	68a0      	ldr	r0, [r4, #8]
    374a:	68e2      	ldr	r2, [r4, #12]
    374c:	60c2      	str	r2, [r0, #12]
    374e:	6090      	str	r0, [r2, #8]
    3750:	4a2f      	ldr	r2, [pc, #188]	; (3810 <_free_r+0x1c8>)
    3752:	6812      	ldr	r2, [r2, #0]
    3754:	f043 0001 	orr.w	r0, r3, #1
    3758:	4293      	cmp	r3, r2
    375a:	6060      	str	r0, [r4, #4]
    375c:	608c      	str	r4, [r1, #8]
    375e:	d3b6      	bcc.n	36ce <_free_r+0x86>
    3760:	4b2c      	ldr	r3, [pc, #176]	; (3814 <_free_r+0x1cc>)
    3762:	4640      	mov	r0, r8
    3764:	6819      	ldr	r1, [r3, #0]
    3766:	f7ff ff21 	bl	35ac <_malloc_trim_r>
    376a:	e7b0      	b.n	36ce <_free_r+0x86>
    376c:	1811      	adds	r1, r2, r0
    376e:	6849      	ldr	r1, [r1, #4]
    3770:	07c9      	lsls	r1, r1, #31
    3772:	d444      	bmi.n	37fe <_free_r+0x1b6>
    3774:	6891      	ldr	r1, [r2, #8]
    3776:	68d2      	ldr	r2, [r2, #12]
    3778:	60ca      	str	r2, [r1, #12]
    377a:	4403      	add	r3, r0
    377c:	f043 0001 	orr.w	r0, r3, #1
    3780:	6091      	str	r1, [r2, #8]
    3782:	6060      	str	r0, [r4, #4]
    3784:	50e3      	str	r3, [r4, r3]
    3786:	e7a2      	b.n	36ce <_free_r+0x86>
    3788:	2a14      	cmp	r2, #20
    378a:	d817      	bhi.n	37bc <_free_r+0x174>
    378c:	f102 075c 	add.w	r7, r2, #92	; 0x5c
    3790:	007f      	lsls	r7, r7, #1
    3792:	f102 055b 	add.w	r5, r2, #91	; 0x5b
    3796:	e7a9      	b.n	36ec <_free_r+0xa4>
    3798:	10aa      	asrs	r2, r5, #2
    379a:	684b      	ldr	r3, [r1, #4]
    379c:	2501      	movs	r5, #1
    379e:	fa05 f202 	lsl.w	r2, r5, r2
    37a2:	4313      	orrs	r3, r2
    37a4:	604b      	str	r3, [r1, #4]
    37a6:	4602      	mov	r2, r0
    37a8:	e7b1      	b.n	370e <_free_r+0xc6>
    37aa:	f043 0201 	orr.w	r2, r3, #1
    37ae:	614c      	str	r4, [r1, #20]
    37b0:	610c      	str	r4, [r1, #16]
    37b2:	60e5      	str	r5, [r4, #12]
    37b4:	60a5      	str	r5, [r4, #8]
    37b6:	6062      	str	r2, [r4, #4]
    37b8:	50e3      	str	r3, [r4, r3]
    37ba:	e788      	b.n	36ce <_free_r+0x86>
    37bc:	2a54      	cmp	r2, #84	; 0x54
    37be:	d806      	bhi.n	37ce <_free_r+0x186>
    37c0:	0b1a      	lsrs	r2, r3, #12
    37c2:	f102 076f 	add.w	r7, r2, #111	; 0x6f
    37c6:	007f      	lsls	r7, r7, #1
    37c8:	f102 056e 	add.w	r5, r2, #110	; 0x6e
    37cc:	e78e      	b.n	36ec <_free_r+0xa4>
    37ce:	f5b2 7faa 	cmp.w	r2, #340	; 0x154
    37d2:	d806      	bhi.n	37e2 <_free_r+0x19a>
    37d4:	0bda      	lsrs	r2, r3, #15
    37d6:	f102 0778 	add.w	r7, r2, #120	; 0x78
    37da:	007f      	lsls	r7, r7, #1
    37dc:	f102 0577 	add.w	r5, r2, #119	; 0x77
    37e0:	e784      	b.n	36ec <_free_r+0xa4>
    37e2:	f240 5054 	movw	r0, #1364	; 0x554
    37e6:	4282      	cmp	r2, r0
    37e8:	d806      	bhi.n	37f8 <_free_r+0x1b0>
    37ea:	0c9a      	lsrs	r2, r3, #18
    37ec:	f102 077d 	add.w	r7, r2, #125	; 0x7d
    37f0:	007f      	lsls	r7, r7, #1
    37f2:	f102 057c 	add.w	r5, r2, #124	; 0x7c
    37f6:	e779      	b.n	36ec <_free_r+0xa4>
    37f8:	27fe      	movs	r7, #254	; 0xfe
    37fa:	257e      	movs	r5, #126	; 0x7e
    37fc:	e776      	b.n	36ec <_free_r+0xa4>
    37fe:	f043 0201 	orr.w	r2, r3, #1
    3802:	6062      	str	r2, [r4, #4]
    3804:	50e3      	str	r3, [r4, r3]
    3806:	e762      	b.n	36ce <_free_r+0x86>
    3808:	1fff8dcc 	.word	0x1fff8dcc
    380c:	1fff8dd4 	.word	0x1fff8dd4
    3810:	1fff91d4 	.word	0x1fff91d4
    3814:	1fff97c8 	.word	0x1fff97c8
    3818:	736e6553 	.word	0x736e6553
    381c:	4f20726f 	.word	0x4f20726f
    3820:	6950206e 	.word	0x6950206e
    3824:	0000206e 	.word	0x0000206e
    3828:	6d6f4320 	.word	0x6d6f4320
    382c:	74656c70 	.word	0x74656c70
    3830:	ffff0065 	.word	0xffff0065
    3834:	74696e49 	.word	0x74696e49
    3838:	746e4920 	.word	0x746e4920
    383c:	75727265 	.word	0x75727265
    3840:	20737470 	.word	0x20737470
    3844:	0000202d 	.word	0x0000202d
    3848:	706d6f43 	.word	0x706d6f43
    384c:	6574656c 	.word	0x6574656c
    3850:	00000000 	.word	0x00000000
    3854:	ffff0a0d 	.word	0xffff0a0d

00003858 <digital_pin_to_info_PGM>:
    3858:	43fe0840 4004a040 43fe0844 4004a044     @..C@..@D..CD..@
    3868:	43fe1800 4004c000 43fe0030 40049030     ...C...@0..C0..@
    3878:	43fe0034 40049034 43fe181c 4004c01c     4..C4..@...C...@
    3888:	43fe1810 4004c010 43fe1808 4004c008     ...C...@...C...@
    3898:	43fe180c 4004c00c 43fe100c 4004b00c     ...C...@...C...@
    38a8:	43fe1010 4004b010 43fe1018 4004b018     ...C...@...C...@
    38b8:	43fe101c 4004b01c 43fe1014 4004b014     ...C...@...C...@
    38c8:	43fe1804 4004c004 43fe1000 4004b000     ...C...@...C...@
    38d8:	43fe0800 4004a000 43fe0804 4004a004     ...C...@...C...@
    38e8:	43fe080c 4004a00c 43fe0808 4004a008     ...C...@...C...@
    38f8:	43fe1814 4004c014 43fe1818 4004c018     ...C...@...C...@
    3908:	43fe1004 4004b004 43fe1008 4004b008     ...C...@...C...@
    3918:	43fe0014 40049014 43fe084c 4004a04c     ...C...@L..CL..@
    3928:	43fe2004 4004d004 43fe1024 4004b024     . .C...@$..C$..@
    3938:	43fe1020 4004b020 43fe1028 4004b028      ..C ..@(..C(..@
    3948:	43fe102c 4004b02c 43fe2000 4004d000     ,..C,..@. .C...@
    3958:	43fe0848 4004a048 43fe0010 40049010     H..CH..@...C...@

00003968 <vtable for usb_serial_class>:
	...
    3970:	00001d45 00001d3d 00001d39 00001d35     E...=...9...5...
    3980:	00001d31 00001d2d 00001d29 00001d25     1...-...)...%...

00003990 <usb_endpoint_config_table>:
    3990:	15191500                                ....

00003994 <usb_descriptor_list>:
    3994:	00000100 1fff88fc 00000012 00000200     ................
    39a4:	1fff8928 00000043 00000300 1fff8984     (...C...........
    39b4:	00000000 04090301 1fff8910 00000000     ................
    39c4:	04090302 1fff896c 00000000 04090303     ....l...........
    39d4:	1fff8988 00000000 00000000 00000000     ................
    39e4:	00000000                                ....

000039e8 <_global_impure_ptr>:
    39e8:	1fff89a0                                ....

000039ec <_init>:
    39ec:	b5f8      	push	{r3, r4, r5, r6, r7, lr}
    39ee:	bf00      	nop
    39f0:	bcf8      	pop	{r3, r4, r5, r6, r7}
    39f2:	bc08      	pop	{r3}
    39f4:	469e      	mov	lr, r3
    39f6:	4770      	bx	lr

000039f8 <__init_array_start>:
    39f8:	00003565 	.word	0x00003565

000039fc <__frame_dummy_init_array_entry>:
    39fc:	00000435 00000945                       5...E...

Disassembly of section .fini:

00003a04 <_fini>:
    3a04:	b5f8      	push	{r3, r4, r5, r6, r7, lr}
    3a06:	bf00      	nop

Disassembly of section .data:

1fff8720 <port_E_isr>:
1fff8720:	b538      	push	{r3, r4, r5, lr}
1fff8722:	4b08      	ldr	r3, [pc, #32]	; (1fff8744 <port_E_isr+0x24>)
1fff8724:	681c      	ldr	r4, [r3, #0]
1fff8726:	601c      	str	r4, [r3, #0]
1fff8728:	b154      	cbz	r4, 1fff8740 <port_E_isr+0x20>
1fff872a:	4d07      	ldr	r5, [pc, #28]	; (1fff8748 <port_E_isr+0x28>)
1fff872c:	fa94 f3a4 	rbit	r3, r4
1fff8730:	fab3 f383 	clz	r3, r3
1fff8734:	f855 3023 	ldr.w	r3, [r5, r3, lsl #2]
1fff8738:	4798      	blx	r3
1fff873a:	1e63      	subs	r3, r4, #1
1fff873c:	401c      	ands	r4, r3
1fff873e:	d1f5      	bne.n	1fff872c <port_E_isr+0xc>
1fff8740:	bd38      	pop	{r3, r4, r5, pc}
1fff8742:	bf00      	nop
1fff8744:	4004d0a0 	.word	0x4004d0a0
1fff8748:	1fff88dc 	.word	0x1fff88dc

1fff874c <port_D_isr>:
1fff874c:	b538      	push	{r3, r4, r5, lr}
1fff874e:	4b08      	ldr	r3, [pc, #32]	; (1fff8770 <port_D_isr+0x24>)
1fff8750:	681c      	ldr	r4, [r3, #0]
1fff8752:	601c      	str	r4, [r3, #0]
1fff8754:	b154      	cbz	r4, 1fff876c <port_D_isr+0x20>
1fff8756:	4d07      	ldr	r5, [pc, #28]	; (1fff8774 <port_D_isr+0x28>)
1fff8758:	fa94 f3a4 	rbit	r3, r4
1fff875c:	fab3 f383 	clz	r3, r3
1fff8760:	f855 3023 	ldr.w	r3, [r5, r3, lsl #2]
1fff8764:	4798      	blx	r3
1fff8766:	1e63      	subs	r3, r4, #1
1fff8768:	401c      	ands	r4, r3
1fff876a:	d1f5      	bne.n	1fff8758 <port_D_isr+0xc>
1fff876c:	bd38      	pop	{r3, r4, r5, pc}
1fff876e:	bf00      	nop
1fff8770:	4004c0a0 	.word	0x4004c0a0
1fff8774:	1fff88bc 	.word	0x1fff88bc

1fff8778 <port_C_isr>:
1fff8778:	b538      	push	{r3, r4, r5, lr}
1fff877a:	4b08      	ldr	r3, [pc, #32]	; (1fff879c <port_C_isr+0x24>)
1fff877c:	681c      	ldr	r4, [r3, #0]
1fff877e:	601c      	str	r4, [r3, #0]
1fff8780:	b154      	cbz	r4, 1fff8798 <port_C_isr+0x20>
1fff8782:	4d07      	ldr	r5, [pc, #28]	; (1fff87a0 <port_C_isr+0x28>)
1fff8784:	fa94 f3a4 	rbit	r3, r4
1fff8788:	fab3 f383 	clz	r3, r3
1fff878c:	f855 3023 	ldr.w	r3, [r5, r3, lsl #2]
1fff8790:	4798      	blx	r3
1fff8792:	1e63      	subs	r3, r4, #1
1fff8794:	401c      	ands	r4, r3
1fff8796:	d1f5      	bne.n	1fff8784 <port_C_isr+0xc>
1fff8798:	bd38      	pop	{r3, r4, r5, pc}
1fff879a:	bf00      	nop
1fff879c:	4004b0a0 	.word	0x4004b0a0
1fff87a0:	1fff888c 	.word	0x1fff888c

1fff87a4 <port_B_isr>:
1fff87a4:	b538      	push	{r3, r4, r5, lr}
1fff87a6:	4b08      	ldr	r3, [pc, #32]	; (1fff87c8 <port_B_isr+0x24>)
1fff87a8:	681c      	ldr	r4, [r3, #0]
1fff87aa:	601c      	str	r4, [r3, #0]
1fff87ac:	b154      	cbz	r4, 1fff87c4 <port_B_isr+0x20>
1fff87ae:	4d07      	ldr	r5, [pc, #28]	; (1fff87cc <port_B_isr+0x28>)
1fff87b0:	fa94 f3a4 	rbit	r3, r4
1fff87b4:	fab3 f383 	clz	r3, r3
1fff87b8:	f855 3023 	ldr.w	r3, [r5, r3, lsl #2]
1fff87bc:	4798      	blx	r3
1fff87be:	1e63      	subs	r3, r4, #1
1fff87c0:	401c      	ands	r4, r3
1fff87c2:	d1f5      	bne.n	1fff87b0 <port_B_isr+0xc>
1fff87c4:	bd38      	pop	{r3, r4, r5, pc}
1fff87c6:	bf00      	nop
1fff87c8:	4004a0a0 	.word	0x4004a0a0
1fff87cc:	1fff883c 	.word	0x1fff883c

1fff87d0 <port_A_isr>:
1fff87d0:	b538      	push	{r3, r4, r5, lr}
1fff87d2:	4b08      	ldr	r3, [pc, #32]	; (1fff87f4 <port_A_isr+0x24>)
1fff87d4:	681c      	ldr	r4, [r3, #0]
1fff87d6:	601c      	str	r4, [r3, #0]
1fff87d8:	b154      	cbz	r4, 1fff87f0 <port_A_isr+0x20>
1fff87da:	4d07      	ldr	r5, [pc, #28]	; (1fff87f8 <port_A_isr+0x28>)
1fff87dc:	fa94 f3a4 	rbit	r3, r4
1fff87e0:	fab3 f383 	clz	r3, r3
1fff87e4:	f855 3023 	ldr.w	r3, [r5, r3, lsl #2]
1fff87e8:	4798      	blx	r3
1fff87ea:	1e63      	subs	r3, r4, #1
1fff87ec:	401c      	ands	r4, r3
1fff87ee:	d1f5      	bne.n	1fff87dc <port_A_isr+0xc>
1fff87f0:	bd38      	pop	{r3, r4, r5, pc}
1fff87f2:	bf00      	nop
1fff87f4:	400490a0 	.word	0x400490a0
1fff87f8:	1fff8804 	.word	0x1fff8804

1fff87fc <__dso_handle>:
1fff87fc:	00000000                                ....

1fff8800 <__brkval>:
1fff8800:	1fff980c                                ....

1fff8804 <isr_table_portA>:
1fff8804:	00000bc1 00000bc1 00000bc1 00000bc1     ................
1fff8814:	00000bc1 00000bc1 00000bc1 00000bc1     ................
1fff8824:	00000bc1 00000bc1 00000bc1 00000bc1     ................
1fff8834:	00000bc1 00000bc1                       ........

1fff883c <isr_table_portB>:
1fff883c:	00000bc1 00000bc1 00000bc1 00000bc1     ................
1fff884c:	00000bc1 00000bc1 00000bc1 00000bc1     ................
1fff885c:	00000bc1 00000bc1 00000bc1 00000bc1     ................
1fff886c:	00000bc1 00000bc1 00000bc1 00000bc1     ................
1fff887c:	00000bc1 00000bc1 00000bc1 00000bc1     ................

1fff888c <isr_table_portC>:
1fff888c:	00000bc1 00000bc1 00000bc1 00000bc1     ................
1fff889c:	00000bc1 00000bc1 00000bc1 00000bc1     ................
1fff88ac:	00000bc1 00000bc1 00000bc1 00000bc1     ................

1fff88bc <isr_table_portD>:
1fff88bc:	00000bc1 00000bc1 00000bc1 00000bc1     ................
1fff88cc:	00000bc1 00000bc1 00000bc1 00000bc1     ................

1fff88dc <isr_table_portE>:
1fff88dc:	00000bc1 00000bc1                       ........

1fff88e4 <Serial>:
1fff88e4:	00003970 00000000 000003e8 00000000     p9..............

1fff88f4 <usb_buffer_available>:
1fff88f4:	ffffffff                                ....

1fff88f8 <analog_config_bits>:
1fff88f8:	                                         .

1fff88f9 <analog_num_average>:
1fff88f9:	                                         ...

1fff88fc <device_descriptor>:
1fff88fc:	01010112 40000002 048316c0 02010200     .......@........
1fff890c:	00000103                                ....

1fff8910 <usb_string_manufacturer_name_default>:
1fff8910:	00540318 00650065 0073006e 00640079     ..T.e.e.n.s.y.d.
1fff8920:	00690075 006f006e                       u.i.n.o.

1fff8928 <config_descriptor>:
1fff8928:	00430209 c0000102 00040932 02020100     ..C.....2.......
1fff8938:	24050001 05011000 01010124 06022404     ...$....$....$..
1fff8948:	00062405 82050701 40001003 00010409     .$.........@....
1fff8958:	00000a02 03050700 00004002 02840507     .........@......
1fff8968:	00000040                                @...

1fff896c <usb_string_product_name_default>:
1fff896c:	00550316 00420053 00530020 00720065     ..U.S.B. .S.e.r.
1fff897c:	00610069 0000006c                       i.a.l...

1fff8984 <string0>:
1fff8984:	04090304                                ....

1fff8988 <usb_string_serial_number_default>:
1fff8988:	0000030c 00000000 00000000 00000000     ................
	...

1fff89a0 <impure_data>:
1fff89a0:	00000000 1fff8c8c 1fff8cf4 1fff8d5c     ............\...
	...
1fff8a48:	00000001 00000000 abcd330e e66d1234     .........3..4.m.
1fff8a58:	0005deec 0000000b 00000000 00000000     ................
	...

1fff8dc8 <_impure_ptr>:
1fff8dc8:	1fff89a0                                ....

1fff8dcc <__malloc_av_>:
	...
1fff8dd4:	1fff8dcc 1fff8dcc 1fff8dd4 1fff8dd4     ................
1fff8de4:	1fff8ddc 1fff8ddc 1fff8de4 1fff8de4     ................
1fff8df4:	1fff8dec 1fff8dec 1fff8df4 1fff8df4     ................
1fff8e04:	1fff8dfc 1fff8dfc 1fff8e04 1fff8e04     ................
1fff8e14:	1fff8e0c 1fff8e0c 1fff8e14 1fff8e14     ................
1fff8e24:	1fff8e1c 1fff8e1c 1fff8e24 1fff8e24     ........$...$...
1fff8e34:	1fff8e2c 1fff8e2c 1fff8e34 1fff8e34     ,...,...4...4...
1fff8e44:	1fff8e3c 1fff8e3c 1fff8e44 1fff8e44     <...<...D...D...
1fff8e54:	1fff8e4c 1fff8e4c 1fff8e54 1fff8e54     L...L...T...T...
1fff8e64:	1fff8e5c 1fff8e5c 1fff8e64 1fff8e64     \...\...d...d...
1fff8e74:	1fff8e6c 1fff8e6c 1fff8e74 1fff8e74     l...l...t...t...
1fff8e84:	1fff8e7c 1fff8e7c 1fff8e84 1fff8e84     |...|...........
1fff8e94:	1fff8e8c 1fff8e8c 1fff8e94 1fff8e94     ................
1fff8ea4:	1fff8e9c 1fff8e9c 1fff8ea4 1fff8ea4     ................
1fff8eb4:	1fff8eac 1fff8eac 1fff8eb4 1fff8eb4     ................
1fff8ec4:	1fff8ebc 1fff8ebc 1fff8ec4 1fff8ec4     ................
1fff8ed4:	1fff8ecc 1fff8ecc 1fff8ed4 1fff8ed4     ................
1fff8ee4:	1fff8edc 1fff8edc 1fff8ee4 1fff8ee4     ................
1fff8ef4:	1fff8eec 1fff8eec 1fff8ef4 1fff8ef4     ................
1fff8f04:	1fff8efc 1fff8efc 1fff8f04 1fff8f04     ................
1fff8f14:	1fff8f0c 1fff8f0c 1fff8f14 1fff8f14     ................
1fff8f24:	1fff8f1c 1fff8f1c 1fff8f24 1fff8f24     ........$...$...
1fff8f34:	1fff8f2c 1fff8f2c 1fff8f34 1fff8f34     ,...,...4...4...
1fff8f44:	1fff8f3c 1fff8f3c 1fff8f44 1fff8f44     <...<...D...D...
1fff8f54:	1fff8f4c 1fff8f4c 1fff8f54 1fff8f54     L...L...T...T...
1fff8f64:	1fff8f5c 1fff8f5c 1fff8f64 1fff8f64     \...\...d...d...
1fff8f74:	1fff8f6c 1fff8f6c 1fff8f74 1fff8f74     l...l...t...t...
1fff8f84:	1fff8f7c 1fff8f7c 1fff8f84 1fff8f84     |...|...........
1fff8f94:	1fff8f8c 1fff8f8c 1fff8f94 1fff8f94     ................
1fff8fa4:	1fff8f9c 1fff8f9c 1fff8fa4 1fff8fa4     ................
1fff8fb4:	1fff8fac 1fff8fac 1fff8fb4 1fff8fb4     ................
1fff8fc4:	1fff8fbc 1fff8fbc 1fff8fc4 1fff8fc4     ................
1fff8fd4:	1fff8fcc 1fff8fcc 1fff8fd4 1fff8fd4     ................
1fff8fe4:	1fff8fdc 1fff8fdc 1fff8fe4 1fff8fe4     ................
1fff8ff4:	1fff8fec 1fff8fec 1fff8ff4 1fff8ff4     ................
1fff9004:	1fff8ffc 1fff8ffc 1fff9004 1fff9004     ................
1fff9014:	1fff900c 1fff900c 1fff9014 1fff9014     ................
1fff9024:	1fff901c 1fff901c 1fff9024 1fff9024     ........$...$...
1fff9034:	1fff902c 1fff902c 1fff9034 1fff9034     ,...,...4...4...
1fff9044:	1fff903c 1fff903c 1fff9044 1fff9044     <...<...D...D...
1fff9054:	1fff904c 1fff904c 1fff9054 1fff9054     L...L...T...T...
1fff9064:	1fff905c 1fff905c 1fff9064 1fff9064     \...\...d...d...
1fff9074:	1fff906c 1fff906c 1fff9074 1fff9074     l...l...t...t...
1fff9084:	1fff907c 1fff907c 1fff9084 1fff9084     |...|...........
1fff9094:	1fff908c 1fff908c 1fff9094 1fff9094     ................
1fff90a4:	1fff909c 1fff909c 1fff90a4 1fff90a4     ................
1fff90b4:	1fff90ac 1fff90ac 1fff90b4 1fff90b4     ................
1fff90c4:	1fff90bc 1fff90bc 1fff90c4 1fff90c4     ................
1fff90d4:	1fff90cc 1fff90cc 1fff90d4 1fff90d4     ................
1fff90e4:	1fff90dc 1fff90dc 1fff90e4 1fff90e4     ................
1fff90f4:	1fff90ec 1fff90ec 1fff90f4 1fff90f4     ................
1fff9104:	1fff90fc 1fff90fc 1fff9104 1fff9104     ................
1fff9114:	1fff910c 1fff910c 1fff9114 1fff9114     ................
1fff9124:	1fff911c 1fff911c 1fff9124 1fff9124     ........$...$...
1fff9134:	1fff912c 1fff912c 1fff9134 1fff9134     ,...,...4...4...
1fff9144:	1fff913c 1fff913c 1fff9144 1fff9144     <...<...D...D...
1fff9154:	1fff914c 1fff914c 1fff9154 1fff9154     L...L...T...T...
1fff9164:	1fff915c 1fff915c 1fff9164 1fff9164     \...\...d...d...
1fff9174:	1fff916c 1fff916c 1fff9174 1fff9174     l...l...t...t...
1fff9184:	1fff917c 1fff917c 1fff9184 1fff9184     |...|...........
1fff9194:	1fff918c 1fff918c 1fff9194 1fff9194     ................
1fff91a4:	1fff919c 1fff919c 1fff91a4 1fff91a4     ................
1fff91b4:	1fff91ac 1fff91ac 1fff91b4 1fff91b4     ................
1fff91c4:	1fff91bc 1fff91bc 1fff91c4 1fff91c4     ................

1fff91d4 <__malloc_trim_threshold>:
1fff91d4:	00020000                                ....

1fff91d8 <__malloc_sbrk_base>:
1fff91d8:	ffffffff                                ....
